{"main_library":{"exported_symbols":[{"data":{"global":["__ZTVN4rive24CustomPropertyStringBaseE","__ZTVN4rive12TargetEffectE","__ZTVN4rive12DashPathBaseE","__ZTVN4rive23ViewModelInstanceNumberE","_gConfigInstanceCount","__ZTVN4rive20BlendAnimationDirectE","__ZTVN4rive24ViewModelInstanceBooleanE","__ZTVN4rive18ClippingShapeStartE","__ZTVN4rive25BindablePropertyColorBaseE","__ZTVN4rive19LayoutComponentBaseE","__ZN4rive4Font20gFallbackProcEnabledE","__ZTVN4rive36TransitionValueBooleanComparatorBaseE","_VP8DitherCombine8x8","__ZTVN4rive26DataConverterOperationBaseE","__ZTVN4rive10ShapePaintE","__ZTVN4rive22DataConverterStringPadE","_$s11rive_native21PhonyRiveNativePluginCACycfC","__ZTVN4rive4PathE","__ZTVN4rive14EntryStateBaseE","__ZTVN4rive24NestedRemapAnimationBaseE","__length_code","__ZTVN4rive14SolidColorBaseE","__ZTVN4rive4FillE","__ZTVN4rive12TextModifierE","__ZTVN4rive15GroupEffectBaseE","__ZTVN4rive10KeyFrameIdE","__ZTVN4rive8MeshBaseE","__ZTVN4rive16TextStyleFeatureE","__ZTVN4rive24ListenerNumberChangeBaseE","__ZTVN4rive16OpenUrlEventBaseE","__ZTVN4rive37TransitionValueArtboardComparatorBaseE","__ZTVN4rive37TransitionPropertyViewModelComparatorE","_kVP8Log2Range","__ZTVN4rive24StateMachineListenerBaseE","__ZN4rive3gpu28rive_pls_macosx_metallib_lenE","_VP8TransformUV","__ZTVN4rive13DataConverterE","__ZTVN4rive7FeatherE","__ZTVN4rive24DataConverterRounderBaseE","_VP8LConvertBGRAToRGBA4444","__ZTVN4rive8TextBaseE","_rive_jpeg_natural_order2","__ZTVN4rive26DataBindContextValueStringE","__ZTV18FlutterIndexBuffer","__ZTVN4rive19TrackDraggableProxyE","_VP8ksclip2","__ZTVN4rive19ElasticInterpolatorE","__ZTVN4rive27BindablePropertyBooleanBaseE","__ZTVN4rive13TextInputBaseE","__ZTVN4rive21FileAssetContentsBaseE","__ZTVN4rive21DataConverterToNumberE","__ZTVN4rive14KeyFrameDoubleE","__ZTVN4rive21StateMachineLayerBaseE","__ZTVN4rive10AudioEventE","__ZTVN4rive27BindablePropertyTriggerBaseE","_VP8VFilter16i","__ZTVN4rive12KeyFrameBoolE","__ZTVN4rive26ViewModelPropertyAssetBaseE","__ZTVN4rive33DataConverterSystemNormalizerBaseE","__ZTVN4rive14PointsPathBaseE","__ZTVN4rive16EffectsContainerE","_WebPPackRGB","__ZTVN4rive14NestedArtboardE","__ZTVN4rive35TransitionValueStringComparatorBaseE","__ZTVN4rive26CubicInterpolatorComponentE","_VP8TransformDCUV","__ZTVN4rive10WeightBaseE","__ZN4rive21AnimationResetFactory7m_mutexE","__ZTVN4rive24ViewModelInstanceTriggerE","__ZTVN4rive30DataConverterStringRemoveZerosE","__ZTVN4rive20KeyFrameInterpolatorE","__ZN4rive17AudioDecodeWorker10sm_exitingE","__ZTVN4rive27ListenerViewModelChangeBaseE","__ZTVN4rive12DataBindPathE","__ZTVN4rive24CustomPropertyNumberBaseE","__ZN4rive22ViewModelInstanceValue11defaultNameE","__ZTVN4rive22CustomPropertyEnumBaseE","__ZTVN4rive21NestedSimpleAnimationE","__ZTVN4rive31ScriptedTransitionConditionBaseE","__ZTVN4rive9TextStyleE","__ZTVN4rive24DataConverterTriggerBaseE","__ZTVN4rive17ScriptedDataValueE","__ZTVN4rive29ViewModelInstanceValueRuntimeE","__ZTVN4rive22TextFollowPathModifierE","__ZTVN4rive14ImageAssetBaseE","__ZTVN4rive14ScriptedLayoutE","_WebPMultARGBRow","__ZN10RiveWorker11sm_instanceE","__ZTVN4rive18RotationConstraintE","__ZTVN4rive17KeyFrameColorBaseE","__ZTVN4rive27DataConverterOperationValueE","__ZTVN4rive28VertexPropertyListenerSingleE","__ZTVN4rive5AxisYE","__ZTVN4rive22ViewModelInstanceColorE","__ZTVN4rive17BlendState1DInputE","__ZTVN4rive18ContainerComponentE","__ZTVN4rive25ViewModelInstanceListItemE","__ZTVN4rive12ListPathBaseE","__ZTVN4rive21CubicAsymmetricVertexE","__ZN4rive9SliceMesh12patchCornersE","__ZTVN4rive26DataBindContextValueNumberE","__ZTVN4rive21TextModifierRangeBaseE","__ZTVN4rive21ViewModelPropertyBaseE","__ZTVN4rive14AudioEventBaseE","__ZTVN4rive18DataConverterGroupE","__ZTVN4rive18HitTestCommandPathE","__ZTVN4rive20ScriptInputColorBaseE","__ZTVN4rive20ScrollConstraintBaseE","__ZTVN4rive16FormulaTokenBaseE","__ZTVN4rive27ViewModelInstanceAssetImageE","__ZTVN4rive8DashPathE","__ZTVN4rive15NestedAnimationE","__ZTVN4rive20TextValueRunPropertyE","__ZTVN4rive18ScriptedLayoutBaseE","__ZTVN4rive9RectangleE","__ZTVN4rive29ViewModelInstanceArtboardBaseE","__ZTVN4rive4DashE","__ZTVN4rive8ListPathE","__ZTVN4rive24ForegroundLayoutDrawableE","__ZTVN4rive12AnyStateBaseE","_VP8Transform","_VP8SimpleHFilter16i","__ZTVN4rive14DashEffectPathE","__ZTVN4rive20ListenerNumberChangeE","_kVP8NewRange","__ZTVN4rive17ScriptInputNumberE","__ZTV19FlutterVertexBuffer","__ZTVN4rive26BindablePropertyNumberBaseE","__ZTVN4rive21ViewModelPropertyEnumE","__ZN4rive21AnimationResetFactory11m_resourcesE","_VP8LConvertBGRAToBGR","__ZTVN4rive33DataConverterSystemDegsToRadsBaseE","__ZTVN4rive34DataConverterStringRemoveZerosBaseE","__ZN4rive9SliceMesh13triangulationE","__ZTVN4rive14ParametricPathE","__ZTVN4rive27FormulaTokenParenthesisBaseE","_g_deleteMutex","__ZTVN4rive24BlendAnimationDirectBaseE","__ZTVN4rive10LayerStateE","__ZTVN4rive23CubicMirroredVertexBaseE","__ZTVN4rive20ScriptedPropertyListE","_VP8LPredictorsAdd_C","__ZTVN4rive16KeyFrameBoolBaseE","__ZTVN4rive19ScriptAssetImporterE","_$s11rive_native21PhonyRiveNativePluginC8register4withySo07FlutterF9Registrar_p_tFZ","__ZTVN4rive12RenderShaderE","__ZTVN4rive21ViewModelInstanceListE","__ZTVN4rive26DataConverterStringPadBaseE","_g_viewModelUpdateTrigger","__ZTVN4rive28ScriptInputViewModelPropertyE","__ZTVN4rive21TextVariationModifierE","__ZTVN4rive14AnimationStateE","_g_viewModelUpdateBoolean","__ZTVN4rive4StarE","_rive_jpeg_natural_order7","__ZTVN4rive13FontAssetBaseE","__ZTVN4rive17DataEnumValueBaseE","__ZTVN4rive17FileAssetImporterE","__ZTVN4rive22NestedStateMachineBaseE","__ZTVN4rive17TextModifierRangeE","__ZTVN4rive20StateMachineImporterE","__ZTVN4rive9TextInputE","__ZTVN4rive10PathDasherE","__ZTVN4rive23WorldTransformComponentE","_WebPConvertARGBToUV","__ZTVN4rive35DataConverterOperationViewModelBaseE","__ZTVN4rive8KeyFrameE","__ZTVN4rive18TransformComponentE","_usePLS","__ZTVN4rive12DataBindBaseE","__ZTVN4rive21StateMachineFireEventE","_VP8kabs0","__ZTVN4rive3gpu16StencilClipResetE","__ZTVN4rive10SolidColorE","__ZTVN4rive17TextStyleAxisBaseE","__ZTVN4rive24DataBindContextValueListE","__ZTVN4rive20NestedArtboardLayoutE","__ZTVN4rive29TransitionNumberConditionBaseE","_VP8kclip1","__ZTVN4rive9ComponentE","__ZTVN4rive18ListenerBoolChangeE","__ZTVN4rive20DataConverterRounderE","__ZTVN4rive28StateMachineListenerImporterE","__ZTVN4rive19LinearAnimationBaseE","__ZTVN4rive11ScriptAssetE","__ZTVN4rive3gpu22RenderContextMetalImplE","__ZTVN4rive19ListenerAlignTargetE","__ZTVN4rive20LayoutComponentStyleE","__ZTVN4rive20DataBindContextValueE","__ZTVN4rive15NSlicerTileModeE","__ZTVN4rive19ThumbDraggableProxyE","__ZTVN4rive31ViewModelPropertyEnumCustomBaseE","__ZTVN4rive31TransitionValueIdComparatorBaseE","_lua_ident","__ZN10RiveWorker10sm_exitingE","__ZTVN4rive29DataConverterNumberToListBaseE","__ZTVN4rive6TendonE","_WebPUnfilters","__ZTVN4rive23ElasticInterpolatorBaseE","__ZTVN4rive11EllipseBaseE","_g_viewModelUpdateSymbolListIndex","__ZTVN4rive25ViewModelPropertyEnumBaseE","__ZTVN4rive14RiveRenderPathE","__ZTVN4rive33ArtboardComponentListOverrideBaseE","_rive_YGValueAuto","__ZTVN4rive6StrokeE","__ZTVN4rive26ScriptedListenerActionBaseE","__ZTVN4rive13DrawRulesBaseE","__ZTVN4rive15ScriptAssetBaseE","__ZTVN4rive5AxisXE","__ZTVN4rive25DataConverterListToLengthE","__ZTVN4rive19TransformConstraintE","_rive_jpeg_std_message_table","__ZN5FFlag15UseNewTracebackE","__ZTVN4rive28ListFollowPathConstraintBaseE","__ZTVN4rive27DataBindContextValueBooleanE","__ZTVN4rive15ScaleConstraintE","__ZTVN4rive3gpu13RenderContextE","__ZTVN4rive35DataBindContextValueSymbolListIndexE","__ZTVN4rive11GroupEffectE","__ZTVN4rive27ViewModelInstanceNumberBaseE","__ZTVN4rive13ViewModelBaseE","__ZTVN4rive14NestedBoolBaseE","__ZN4rive3gpu33g_inverseGaussianIntegralTableF16E","_leading","__ZTVN4rive15StateTransitionE","__ZTVN4rive27TransitionBoolConditionBaseE","_g_mutex","_rive_jpeg_natural_order5","_VP8VFilter16","_atoms","__ZTVN4rive30TransitionTriggerConditionBaseE","__ZTVN4rive18KeyFrameDoubleBaseE","__ZTVN4rive18TargetedConstraintE","__ZTVN4rive24DataConverterFormulaBaseE","__ZTVN4rive13DrawableProxyE","__ZTVN4rive23CustomPropertyContainerE","__ZTVN4rive29ArtboardComponentListOverrideE","__ZTVN4rive18RadialGradientBaseE","__ZTVN4rive25CustomPropertyTriggerBaseE","__ZTVN4rive12RootBoneBaseE","__ZTVN4rive3gpu13ImageMeshDrawE","__ZTVN4rive23DataConverterStringTrimE","__ZN4rive3gpu24rive_pls_macosx_metallibE","__ZTVN4rive16ClippingShapeEndE","__ZTVN4rive12JoystickBaseE","__ZTVN4rive20ElasticScrollPhysicsE","__ZTVN4rive26BindablePropertyStringBaseE","__ZTVN4rive19ScrollBarConstraintE","__ZTVN4rive25ScriptedDataConverterBaseE","__ZTVN4rive8DataEnumE","_VP8SimpleVFilter16","__ZTVN4rive18CoreObjectListenerE","__ZTVN4rive13DataEnumValueE","__ZTVN4rive22AnimationStateInstanceE","__ZTVN4rive13BackboardBaseE","_$s11rive_native21PhonyRiveNativePluginCN","__ZTVN4rive18AnimationStateBaseE","_VP8LAddGreenToBlueAndRed","__ZTVN4rive13KeyedPropertyE","__ZTVN4rive22ViewportDraggableProxyE","__ZTVN4rive13RectangleBaseE","__ZTVN4rive24TransitionInputConditionE","_VP8LPredictors","__ZTVN4rive28ViewModelPropertyBooleanBaseE","__ZTVN4rive22ViewModelInstanceAssetE","__ZTVN4rive27ViewModelInstanceStringBaseE","_VP8HFilter16i","_WebPHasAlpha8b","__ZTVN4rive17CubicInterpolatorE","__ZTVN4rive4TextE","_gradientStops","__ZTVN4rive16DataBindPathBaseE","__ZTVN4rive10StrokeBaseE","__ZTVN4rive23TransformConstraintBaseE","__ZTVN4rive23ViewModelInstanceStringE","__ZTVN4rive15RiveRenderPaintE","__ZTVN4rive11FeatherBaseE","_WebPRescalerImportRowShrink","__ZTVN4rive27ScriptedTransitionConditionE","__ZTVN4rive33FormulaTokenArgumentSeparatorBaseE","__ZTVN4rive24ElasticScrollPhysicsBaseE","__ZTVN4rive25CubicEaseInterpolatorBaseE","__ZN5FFlag22LuauMathIsNanInfFiniteE","__ZTVN4rive11RenderPaintE","__ZTVN4rive20TransitionComparatorE","__ZTVN4rive26DataBindContextTargetValueE","__ZTVN4rive21BlendState1DViewModelE","__ZTVN4rive10ConstraintE","__ZTVN4rive16ScrollConstraintE","_rive_YGValueUndefined","_rive_jpeg_natural_order3","__ZTVN4rive25CustomPropertyBooleanBaseE","__ZTVN4rive14ListenerActionE","_g_viewModelUpdateNumber","_WebPConvertRGB24ToY","__ZTVN4rive17ClippingShapeBaseE","__ZTVN4rive36ViewModelPropertySymbolListIndexBaseE","__ZTVN4rive25ScriptedPropertyViewModelE","__ZTVN4rive20StateMachineBoolBaseE","__ZTVN4rive9SliceMeshE","__ZTVN4rive11NSlicerBaseE","__ZTVN4rive27DataConverterStringTrimBaseE","__ZN4rive14BlendAnimation16m_EmptyAnimationE","__ZTVN4rive4NodeE","__ZTVN4rive8ArtboardE","__ZTVN4rive27VertexPropertyListenerPointE","__ZTVN4rive19SystemStateInstanceE","_rive_png_sRGB_base","__ZTVN4rive12KeyFrameUintE","_WebPExtractAlpha","__ZTVN4rive9AxisXBaseE","__ZTVN4rive17TextInputDrawableE","__ZTVN4rive21BlendState1DInputBaseE","__ZTVN4rive16StateMachineBaseE","__ZTVN4rive17NestedTriggerBaseE","__ZN4rive13ManifestAsset14emptyIntVectorE","__ZTVN4rive15NSlicedNodeBaseE","__ZTVN4rive26CubicValueInterpolatorBaseE","__ZTVN4rive20NestedRemapAnimationE","_deflate_copyright","__ZN4rive3gpu26g_gaussianIntegralTableF16E","__ZTVN4rive8DrawableE","_VP8LConvertBGRAToRGBA","_g_viewModelUpdateAsset","__ZTVN4rive22ListenerBoolChangeBaseE","__ZTVN4rive21FormulaTokenValueBaseE","_$s11rive_native21PhonyRiveNativePluginCMa","__ZTVN4rive20DataConverterFormulaE","__ZTVN4rive8JoystickE","_g_decodeWorker","__ZTVN4rive25CubicAsymmetricVertexBaseE","_rive_png_sRGB_delta","__ZTVN4rive8StarBaseE","__ZTVN4rive19NSlicerTileModeBaseE","__ZTVN4rive22ScriptedPathEffectBaseE","__ZTVN4rive12RenderBufferE","__ZTVN4rive5ShapeE","__ZTVN4rive10RenderPathE","__ZTVN4rive8BoneBaseE","__ZTVN4rive16ArtboardImporterE","__ZTVN4rive30DataConverterBooleanNegateBaseE","__ZTVN4rive23CustomPropertyGroupBaseE","__ZTVN4rive27DataBindContextValueTriggerE","__ZTVN4rive24NestedArtboardLayoutBaseE","_WebPConvertBGR24ToY","__ZTVN4rive24BlendStateTransitionBaseE","__ZTVN4rive20ScriptedDrawableBaseE","_useFallbackFonts","_VP8PredLuma4","__ZTVN4rive25ViewModelPropertyListBaseE","__ZTVN4rive15LinearAnimationE","_WebPDispatchAlpha","_VP8VFilter8","__ZN4rive13ManifestAsset5emptyE","__ZTVN4rive22CubicValueInterpolatorE","__ZTVN4rive16KeyFrameUintBaseE","__ZTVN4rive28ViewModelPropertyTriggerBaseE","__ZTVN4rive9DrawRulesE","_VP8HFilter8","__ZTVN4rive20DataConverterTriggerE","__ZTVN4rive25ArtboardComponentListBaseE","__ZTVN4rive13KeyFrameColorE","__ZTVN4rive18TextTargetModifierE","__ZTVN4rive20BlendStateTransitionE","__ZTVN4rive21TextInputSelectedTextE","__ZTVN4rive24BindablePropertyListBaseE","__ZTVN4rive14StraightVertexE","_g_viewModelUpdateList","__ZTVN4rive19ArtboardListMapRuleE","__ZTVN4rive16BlendStateDirectE","__ZTVN4rive17ScriptInputStringE","__ZTVN4rive10NestedBoolE","__ZTVN4rive12NestedNumberE","__ZTVN4rive20TextStyleFeatureBaseE","__ZTVN4rive18DataEnumCustomBaseE","__ZTVN4rive29DataConverterListToLengthBaseE","__ZTVN4rive28DataConverterRangeMapperBaseE","__ZTVN4rive26CPPRuntimeScriptingContextE","__ZTVN4rive22TextInputSelectionBaseE","__ZTVN4rive13ScrollPhysicsE","__ZTVN4rive13AnimationBaseE","_gPrintSkips","__ZTVN4rive11PolygonBaseE","__ZTVN4rive12RiveRendererE","_VP8LMapColor8b","__ZTVN4rive12BlendState1DE","__ZTVN4rive31TransitionArtboardConditionBaseE","_luaH_dummynode","__ZTVN4rive20BlendState1DInstanceE","__ZTVN4rive5SceneE","_WebPHasAlpha32b","__ZTVN4rive12PathComposerE","__ZTVN4rive15TextInputCursorE","__ZTVN4rive8SkinBaseE","__ZTVN4rive20StateMachineInstanceE","__ZTVN4rive32ScriptInputViewModelPropertyBaseE","__ZTVN4rive11KeyedObjectE","__ZTVN4rive12StateMachineE","__ZTVN4rive18StraightVertexBaseE","__ZTVN4rive30DataBindContextValueAssetImageE","__ZTVN4rive22ViewModelComponentBaseE","__ZTVN4rive9AxisYBaseE","__ZTVN4rive31DataConverterOperationValueBaseE","__ZTVN4rive12FormulaTokenE","__ZTVN4rive5EventE","__ZTVN4rive23LinearAnimationInstanceE","__ZTVN4rive28TransitionSelfComparatorBaseE","__ZTVN4rive18ScriptInputBooleanE","__ZTVN4rive10FolderBaseE","__ZTVN4rive16ScriptInputColorE","_rive_nativeVersionNumber","__ZTVN4rive21InterpolatingKeyFrameE","__ZTVN4rive32TransitionViewModelConditionBaseE","__ZTVN4rive8RootBoneE","__ZTVN4rive31FormulaTokenParenthesisOpenBaseE","_rive_jpeg_natural_order4","_rive_YGValueZero","__ZTVN4rive23CubicDetachedVertexBaseE","__ZTVN4rive9FileAssetE","_g_viewModelUpdateEnum","_g_viewModelInstanceSerialized","__ZTVN4rive21TranslationConstraintE","__ZTVN4rive25FormulaTokenOperationBaseE","__ZTVN4rive16IKConstraintBaseE","__ZTVN4rive25BlendState1DViewModelBaseE","__ZTVN4rive4SkinE","__ZTVN4rive26ViewModelInstanceViewModelE","__ZTVN4rive19DataBindContextBaseE","__ZTVN4rive10MeshVertexE","_WebPMultRow","__ZTVN4rive27ViewModelPropertyNumberBaseE","__ZTVN4rive26DataConverterGroupItemBaseE","__ZTVN4rive15DataBindContextE","_WebPRescalerExportRowShrink","__ZTVN4rive22DistanceConstraintBaseE","__ZTVN4rive15LayoutComponentE","__ZTVN4rive18NestedArtboardBaseE","__ZTVN4rive20FollowPathConstraintE","__ZTVN4rive18NestedArtboardLeafE","_VP8LMapColor32b","__ZTVN4rive13NestedTriggerE","__ZTVN4rive40TransitionPropertyArtboardComparatorBaseE","__ZTVN4rive15KeyedObjectBaseE","_VP8GetCPUInfo","_VP8SimpleHFilter16","__ZTVN4rive34TransitionValueAssetComparatorBaseE","__ZTVN4rive9BlobAssetE","__ZTVN4rive22ScriptInputBooleanBaseE","__ZTVN4rive8DataBindE","__ZTVN4rive12DataEnumBaseE","__ZTVN4rive8TrimPathE","__ZTVN4rive13ExitStateBaseE","__ZTVN4rive14KeyFrameStringE","_VP8VFilter8i","_WebPSamplers","__ZTVN4rive21FormulaTokenInputBaseE","__ZTVN4rive10ImageAssetE","__ZTVN4rive25ViewModelInstanceArtboardE","__ZTVN4rive17ListenerFireEventE","__ZTVN4rive3gpu8PathDrawE","__ZTVN4rive14AudioAssetBaseE","__ZTVN4rive13ListenerGroupE","__ZTVN4rive12TrimPathBaseE","__ZTVN4rive24LayoutComponentStyleBaseE","__ZTVN4rive24BlendStateDirectInstanceE","__ZTVN4rive22ScriptInputTriggerBaseE","_VP8PredLuma16","__ZTVN4rive31ViewModelPropertyAssetImageBaseE","__ZTVN4rive18DataEnumSystemBaseE","_rive_jpeg_aritab","__ZTVN4rive14MeshVertexBaseE","_VP8ksclip1","__ZTVN4rive20BlendAnimation1DBaseE","_WebPDispatchAlphaToGreen","__ZTVN4rive27VertexPropertyListenerMultiE","__ZTVN4rive25DataConverterToNumberBaseE","__ZTVN4rive21CubicEaseInterpolatorE","__ZTVN4rive27StateMachineFireTriggerBaseE","__ZTVN4rive18NestedStateMachineE","__ZTVN4rive17ViewModelInstanceE","__ZTVN4rive10PathVertexE","__ZTVN4rive21DataConverterToStringE","__ZTVN4rive13ClippingShapeE","_luauF_table","__ZN4rive4Font13gFallbackProcE","__ZTVN4rive19FileAssetReferencerE","_luau_ident","__ZTVN4rive9ShapeBaseE","__ZTVN4rive4SoloE","__ZTVN4rive22DataConverterGroupBaseE","__ZTVN4rive6VertexE","__ZTVN4rive19CubicMirroredVertexE","__ZTVN4rive24DataConverterRangeMapperE","__ZTVN4rive19ScriptInputArtboardE","__ZTVN4rive23ListenerAlignTargetBaseE","__ZTVN4rive25ViewModelInstanceImporterE","_gCurrentGenerationCount","__ZTVN4rive16ArtboardInstanceE","_VP8SimpleVFilter16i","_WebPApplyAlphaMultiply","__ZTVN4rive11NSlicedNodeE","__ZTVN4rive12ArtboardBaseE","__ZTVN4rive3gpu23RenderContextHelperImplE","__ZTVN4rive25DataConverterToStringBaseE","__ZN4rive27ViewModelPropertyEnumSystem16m_systemDataEnumE","__ZTVN4rive10PointsPathE","_fallbackFonts","__ZTVN4rive16TargetEffectBaseE","__ZTVN4rive23ScrollBarConstraintBaseE","__ZTVN4rive16GradientStopBaseE","__ZTVN4rive17DataBindContainerE","_g_viewModelUpdateArtboard","_$s11rive_native21PhonyRiveNativePluginCACycfc","__ZTVN4rive23ScriptInputArtboardBaseE","__ZTVN4rive22ScriptedObjectImporterE","__ZTVN4rive8TriangleE","__ZTVN4rive25DataConverterNumberToListE","__ZTVN4rive14TrimEffectPathE","_VP8PredChroma8","__ZTVN4rive28DataBindContextValueArtboardE","__ZTVN4rive30CubicInterpolatorComponentBaseE","__ZTVN4rive16ScriptedPropertyE","__ZTVN4rive18LayerStateImporterE","__ZTVN4rive19DraggableConstraintE","__ZTVN4rive32DraggableConstraintListenerGroupE","_rive_nativeVersionString","__ZTVN4rive9FontAssetE","_VP8HFilter8i","__ZTVN4rive25ViewModelInstanceEnumBaseE","__ZTVN4rive28BindablePropertyArtboardBaseE","__ZTVN4rive19TextVariationHelperE","__ZTVN4rive25TranslationConstraintBaseE","__ZTVN4rive28ViewModelInstanceTriggerBaseE","__ZTVN4rive19TextInputCursorBaseE","__ZTVN4rive12GradientStopE","_rive_jpeg_natural_order","__ZTVN4rive35TransitionValueNumberComparatorBaseE","__ZTVN4rive29ViewModelPropertyArtboardBaseE","__ZTVN4rive8FillBaseE","__ZTVN4rive8NodeBaseE","__ZTVN4rive12IKConstraintE","__ZN4rive29g_scriptVerificationPublicKeyE","__ZTVN4rive29DataConverterSystemDegsToRadsE","_inflate_copyright","__ZTVN4rive23PropertySymbolDependentE","__ZTVN4rive14GrTriangulatorE","__ZTVN4rive19HitScriptedDrawableE","__ZTVN4rive14LinearGradientE","__ZTVN4rive9EventBaseE","_rive_png_sRGB_table","__ZTVN4rive14RadialGradientE","__ZTVN4rive24ListFollowPathConstraintE","__ZTVN4rive17FileAssetContentsE","__ZTVN4rive19StateTransitionBaseE","__ZTVN4rive10AudioAssetE","__ZTVN4rive11RenderImageE","__ZTVN4rive24BindablePropertyEnumBaseE","_VP8HFilter16","__ZTVN4rive7EllipseE","__ZTVN4rive18KeyFrameStringBaseE","__ZTVN4rive14TextStylePaintE","_WebPYUV444Converters","__ZTVN4rive14VertexListenerE","__ZTVN4rive17StateMachineLayerE","__ZTVN4rive17BackboardImporterE","__ZTVN4rive25TransitionNumberConditionE","__ZTVN4rive19TransitionConditionE","__ZTVN4rive22RotationConstraintBaseE","__ZTVN4rive31DataConverterOperationViewModelE","__ZTVN4rive28ViewModelInstanceBooleanBaseE","__ZTVN4rive21ScriptedDataConverterE","_WebPRescalerExportRowExpand","_VP8LTransformColorInverse","__ZTVN4rive20KeyFrameCallbackBaseE","__ZTV18FlutterRenderPaint","__ZTVN4rive18TextStylePaintBaseE","_WebPApplyAlphaMultiply4444","__ZTVN4rive25TextVariationModifierBaseE","__ZTVN4rive30ViewModelPropertyViewModelBaseE","__ZTVN4rive25StateMachineFireEventBaseE","__ZTVN4rive20BlendStateDirectBaseE","__ZTVN4rive41TransitionPropertyViewModelComparatorBaseE","__ZTVN4rive10TendonBaseE","__ZTVN4rive23StateMachineTriggerBaseE","__ZTVN4rive26DataConverterBooleanNegateE","_WebPConvertRGBA32ToUV","__ZTVN4rive22StateMachineFireActionE","__ZTVN4rive25DataConverterInterpolatorE","__ZTVN4rive17ManifestAssetBaseE","_g_viewModelUpdateString","__ZTVN4rive29DataConverterInterpolatorBaseE","__ZTVN4rive14KeyFrameIdBaseE","__ZTVN4rive23StateTransitionImporterE","__ZTVN4rive22DataConverterGroupItemE","_WebPFilters","__ZTVN4rive18ScriptedPathEffectE","__ZTVN4rive21ListenerTriggerChangeE","__ZTVN4rive4MeshE","__ZTVN4rive17KeyedPropertyBaseE","__ZTVN4rive26ViewModelInstanceAssetBaseE","__ZTVN4rive14ScriptedObjectE","__ZTVN4rive7NSlicerE","__ZTVN4rive3gpu13ImageRectDrawE","__ZTVN4rive36ViewModelInstanceSymbolListIndexBaseE","__ZTVN4rive12TextValueRunE","__ZTVN4rive17ViewModelImporterE","__ZTVN4rive26ViewModelPropertyColorBaseE","__ZTVN4rive17TextModifierGroupE","__ZTVN4rive26StateMachineLayerComponentE","__ZTVN4rive34TransitionValueColorComparatorBaseE","__ZTVN4rive23ArtboardListMapRuleBaseE","_VP8TransformWHT","__ZTVN4rive13TextStyleAxisE","__ZTVN4rive25DataBindContextValueColorE","_g_viewModelUpdateColor","__ZTVN4rive12TriangleBaseE","_z_errmsg","__ZTVN4rive21ArtboardComponentListE","__ZTVN4rive21NestedLinearAnimationE","__ZTV17FlutterRenderPath","__ZTVN4rive13TextInputTextE","_trailing","__ZTVN4rive8DashBaseE","__ZTVN4rive11CubicVertexE","__ZTVN4rive9ViewModelE","__ZTVN4rive16NestedNumberBaseE","__ZTVN4rive19ListenerInputChangeE","__ZTVN4rive26TransitionTriggerConditionE","__ZTVN4rive4BoneE","__ZTVN4rive20ClampedScrollPhysicsE","_$s11rive_native21PhonyRiveNativePluginCfD","__ZTVN4rive24FollowPathConstraintBaseE","_VP8LConvertBGRAToRGB","__dist_code","__ZTVN4rive3gpu4DrawE","__ZTVN4rive26ViewModelInstanceColorBaseE","__ZTVN4rive23StateMachineFireTriggerE","_WebPConvertARGBToY","__ZTVN4rive19ScaleConstraintBaseE","__ZN4rive8Artboard10sm_frameIdE","__ZTVN4rive5ImageE","__ZTVN4rive8SoloBaseE","__ZTVN4rive13TextStyleBaseE","__ZTVN4rive18ScriptedEffectPathE","__ZTVN4rive10BlendStateE","_WebPExtractGreen","__ZTV18FlutterRenderImage","__ZTVN4rive21ListenerFireEventBaseE","__ZTVN4rive17StateMachineInputE","_VP8LPredictorsAdd","__ZTVN4rive22ScriptedListenerActionE","__ZTVN4rive7PolygonE","__ZTVN4rive4AxisE","__ZTVN4rive21ScriptInputStringBaseE","__ZTVN4rive25NestedSimpleAnimationBaseE","__ZTVN4rive29ViewModelInstanceListItemBaseE","__ZTVN4rive27ViewModelPropertyStringBaseE","__ZTVN4rive32FormulaTokenParenthesisCloseBaseE","__ZTVN4rive23DataBindContextValueAnyE","__ZTVN4rive29DataConverterSystemNormalizerE","__ZTVN4rive33TransitionValueEnumComparatorBaseE","__ZTVN4rive10DrawTargetE","__ZTVN4rive20StateMachineListenerE","__ZN5FFlag18LuauStacklessPcallE","__ZTVN4rive18TextInputSelectionE","_rive_jpeg_natural_order6","__ZTVN4rive16TextValueRunBaseE","__ZTVN4rive11ScriptInputE","__ZTVN4rive28DataConverterFormulaImporterE","__ZTVN4rive13ManifestAssetE","__ZTVN4rive6WeightE","__ZTVN4rive25ListenerTriggerChangeBaseE","__ZTVN4rive24ClampedScrollPhysicsBaseE","__ZTVN4rive36TransitionValueTriggerComparatorBaseE","__ZTVN4rive27BindablePropertyIntegerBaseE","__ZTVN4rive22NestedArtboardLeafBaseE","__ZTVN4rive13StateInstanceE","__ZTVN4rive20TextValueRunListenerE","_WebPRescalerImportRowExpand","__ZTVN4rive21ScriptInputNumberBaseE","__ZTVN4rive18LinearGradientBaseE","__ZTVN4rive25StateMachineLayerImporterE","__ZTVN4rive22ViewModelInstanceValueE","_gradientColors","__ZTVN4rive19CubicDetachedVertexE","__ZTVN4rive17ViewModelPropertyE","_gPrintChanges","__ZTVN4rive22StateMachineNumberBaseE","__ZTVN4rive18DistanceConstraintE","__ZTVN4rive23TransitionBoolConditionE","__ZTV15WrappedArtboard","__ZTVN4rive16BlendAnimation1DE","_WebPUpsamplers","__ZTVN4rive12StrokeEffectE","__ZTVN4rive30ViewModelInstanceViewModelBaseE","_VP8TransformAC3","__ZTVN4rive31ViewModelPropertyEnumSystemBaseE","__ZTVN4rive24FormulaTokenFunctionBaseE","__ZTVN4rive21KeyedPropertyImporterE","__ZTVN4rive23CustomPropertyColorBaseE","__ZTVN4rive18ScriptInputTriggerE","_$s11rive_native21PhonyRiveNativePluginCMn","_VP8LConvertBGRAToRGB565","__ZTV6HBFont","__ZTVN4rive28TransitionViewModelConditionE","__ZTVN4rive28ForegroundLayoutDrawableBaseE","__ZTVN4rive17RiveRenderFactoryE","__ZTVN4rive12EnumImporterE","__ZTVN4rive13BlobAssetBaseE","__ZTVN4rive21TextModifierGroupBaseE","__ZTVN4rive36TransitionViewModelConditionImporterE","__ZTVN4rive16ScriptedDrawableE","__ZTVN4rive15CubicWeightBaseE","__ZTVN4rive23ListenerViewModelChangeE","_VP8TransformDC","__ZTVN4rive32ViewModelInstanceSymbolListIndexE","__ZTVN4rive21ContourMeshVertexBaseE","__ZTVN4rive25TextInputSelectedTextBaseE","_WebPAlphaReplace","__ZTVN4rive14BlendAnimationE","__ZTVN4rive17TextInputTextBaseE","__ZTVN4rive9ImageBaseE","__ZTVN4rive14DrawTargetBaseE","__ZTVN4rive24DataBindContextValueEnumE","__ZTVN4rive29ViewModelInstanceListImporterE","__ZTVN4rive21ViewModelInstanceEnumE","__ZTVN4rive26TextFollowPathModifierBaseE","__ZTVN4rive25BindablePropertyAssetBaseE"],"objc_class":["PodsDummy_rive_native","RiveNativeRenderTexture","_TtC11rive_native21PhonyRiveNativePlugin","RiveNativePlugin"],"objc_ivar":["RiveNativeRenderTexture._riveRenderer","RiveNativeRenderTexture._passDescriptor","RiveNativeRenderTexture._readWriteRing","RiveNativeRenderTexture._pixelData","RiveNativeRenderTexture._metalTexture"],"weak":["__ZGVZNK4rive23CustomPropertyContainer17containerChildrenEvE8emptyVec","__ZN4Luau6FValueIbE4listE","__ZNSt3__119piecewise_constructE","__ZN4rive3gpu4Draw23FULLSCREEN_PIXEL_BOUNDSE","__ZZNK4rive23CustomPropertyContainer17containerChildrenEvE8emptyVec"]},"text":{"global":["__ZN4rive10ShapePaint7featherEPNS_7FeatherE","__ZNK4rive29TransitionNumberConditionBase5cloneEv","__ZN4rive18ScriptedPathEffect17buildDependenciesEv","_ma_data_source_node_init","__ZN4rive18TargetedConstraint12onAddedDirtyEPNS_11CoreContextE","__ZN4rive21ViewModelInstanceList9addItemAtENS_3rcpINS_25ViewModelInstanceListItemEEEi","__ZThn424_N4rive14NestedArtboard18referencedArtboardEPNS_8ArtboardE","__ZN18FlutterRenderImageD1Ev","__ZN4rive6Vertex8xChangedEv","_rive_YGNodeStyleSetHeightAuto","__ZNK4rive7RawPatheqERKS0_","__ZN4rive18ScriptedEnumValues10pushLengthEv","__ZThn200_N4rive14NestedArtboard13measureLayoutEfNS_17LayoutMeasureModeEfS1_","_ma_delay_config_init","_rive_hb_unicode_funcs_set_user_data","__ZN4rive16PropertyRecorder23recordStateMachineLayerEPKNS_17StateMachineLayerE","__ZN4rive9Component8validateEPNS_11CoreContextE","_ma_rb_init_ex","__ZNK4rive17TextInputDrawable9textInputEv","_ma_aligned_free","__ZN4rive4Mesh12onAddedCleanEPNS_11CoreContextE","_rive_png_get_io_chunk_type","_ma_fader_set_fade","_rive_hb_feature_to_string","__ZN4rive26DataBindContextTargetValueD2Ev","_ma_pcm_rb_uninit","__ZN4rive4Mesh24decodeTriangleIndexBytesENS_4SpanIKhEE","_ma_notch2_init_preallocated","__ZN4rive3gpu16IntersectionTile5resetEiis","__Z15rive_YGFloatMaxff","_rive_png_reset_zstream","__ZN4rive9GlyphLine15ComputeMaxWidthENS_4SpanIS0_EENS1_IKNS_8GlyphRunEEE","_rive_png_get_x_offset_inches","__ZThn448_N4rive21ArtboardComponentList24setVirtualizablePositionEiNS_5Vec2DE","_ma_sound_set_end_callback","__ZThn160_N4rive4Mesh13markSkinDirtyEv","__ZNK11rive_YGNode27getTrailingPaddingAndBorderE20rive_YGFlexDirectionf","__ZN4rive3gpu8PathDraw18initForMidpointFanEPNS0_13RenderContextEPKNS_15RiveRenderPaintE","__ZN4rive9DrawRules19drawTargetIdChangedEv","_rive_hb_font_set_var_coords_normalized","__ZNK4rive29DataConverterNumberToListBase5cloneEv","_rive_jpeg_alloc_huff_table","__ZN4rive16ScrollConstraint16mainAxisIsColumnEv","__ZN4rive10DrawTarget21placementValueChangedEv","__ZN4rive18TransformComponent20updateWorldTransformEv","_ma_dr_flac_version","__ZNK4rive8Artboard20cloneObjectDataBindsEPKNS_4CoreEPS1_PS0_","__ZN4rive25DataConverterInterpolator12interpolatorEPNS_20KeyFrameInterpolatorE","__ZNK4rive12StateMachine5layerENSt3__112basic_stringIcNS1_11char_traitsIcEENS1_9allocatorIcEEEE","_ma_pcm_f32_to_s32","_ma_pcm_rb_available_read","_ma_waveform_set_sample_rate","_rive_png_init_filter_functions_neon","_ma_sound_set_fade_in_milliseconds","__ZN4rive13DataConverter6importERNS_11ImportStackE","__ZNK4rive22DistanceConstraintBase5cloneEv","__ZN4rive17TextModifierGroup16rangeTypeChangedEv","_ma_dr_wav_alaw_to_s32","_ma_pcm_rb_seek_write","_rive_hb_font_set_funcs_data","_rawTextSelectionPath","__ZNK4rive26BindablePropertyStringBase5cloneEv","__ZNK4rive14TextStylePaint19shapeWorldTransformEv","_ma_pcm_rb_get_format","__ZN4rive25StateMachineLayerImporter7resolveEv","__ZNK4rive4File6assetsEv","_ma_dr_wav_init_write","__ZN4rive17ScriptInputNumberD2Ev","_ma_hishelf2_init_preallocated","__ZN4rive11RenderImageC2Ev","__ZN4rive14ListConstraint4fromEPNS_9ComponentE","__ZN4rive16ArtboardInstance9getNumberERKNSt3__112basic_stringIcNS1_11char_traitsIcEENS1_9allocatorIcEEEES9_","__ZN4rive28TransitionViewModelConditionD2Ev","__ZN4rive4Mesh12onAddedDirtyEPNS_11CoreContextE","__ZN4rive20LayoutComponentStyle17marginBottomUnitsEv","__ZN4rive9SliceMesh4calcEv","__ZN4rive21ScriptedPropertyColor8setValueEj","_ma_hpf2_process_pcm_frames","_rive_hb_blob_create","_rive_png_do_swap","_rive_hb_font_get_extents_for_direction","__ZN4rive15LayoutComponent11forcedWidthEf","__ZN4rive14ParametricPath12widthChangedEv","__ZN4rive10ShapePaint17invalidateEffectsEv","__ZN4rive17TextModifierRange12clampChangedEv","__ZN4rive8DataEnum5valueENSt3__112basic_stringIcNS1_11char_traitsIcEENS1_9allocatorIcEEEES7_","_VP8SetError","_getVMIEnumRuntimeEnumType","_lua_tothread","_png_xy_from_XYZ","__ZN11rive_YGNode16resolveDirectionE16rive_YGDirection","__ZN4rive16ScrollConstraint10minOffsetXEv","_rive_hb_font_set_variations","__ZN4rive21TextVariationModifier16axisValueChangedEv","_rive_png_free_jmpbuf","__ZN4rive15LayoutComponent14heightOverrideEfib","_makeRenderPath","__Z11ma_mp3_initPF9ma_resultPvS0_mPmEPFS_S0_x14ma_seek_originEPFS_S0_PxES0_PK26ma_decoding_backend_configPK23ma_allocation_callbacksP6ma_mp3","__ZN4rive20LayoutComponentStyle30gapHorizontalUnitsValueChangedEv","_ma_channel_converter_get_output_channel_map","__ZN4rive30ViewModelInstanceNumberRuntime5valueEf","__ZN17FlutterRenderPathD0Ev","_ma_log_postf","__ZN4rive5Shape4drawEPNS_8RendererE","__ZN4rive21NestedLinearAnimation19initializeAnimationEPNS_16ArtboardInstanceE","__ZN4rive3gpu17ImageDrawUniformsC2ERKNS_5Mat2DEfPKNS0_21ClipRectInverseMatrixEjNS_9BlendModeEj","__ZN4rive12IKConstraint9constrainEPNS_18TransformComponentE","__ZNK4rive11PathMeasure12atPercentageEf","__ZThn184_N4rive21ScriptedDataConverter11addPropertyEPNS_14CustomPropertyE","__ZN4rive11AudioReaderD2Ev","_ma_channel_map_copy_or_default","__ZThn40_N4rive13DataConverter16addDirtyDataBindEPNS_8DataBindE","_rive_jpeg_idct_10x5","__ZN4rive3gpu13RenderContext12LogicalFlush19pushPaddingVerticesEjj","_ma_pcm_rb_set_sample_rate","__ZN4rive20ScriptedPropertyEnumC1EP9lua_StateNS_3rcpINS_21ViewModelInstanceEnumEEE","_riveAdvanceFrame","__ZN4rive15LinearAnimation12onAddedCleanEPNS_11CoreContextE","_rive_png_create_write_struct","__Z15ma_pcm_u8_to_u8PvPKvy14ma_dither_mode","__ZN4rive31ViewModelInstanceBooleanRuntime5valueEb","_rive_jpeg_alloc_quant_table","_ma_bpf2_init_preallocated","_rive_png_read_filter_row_up_neon","__ZN4rive37TransitionPropertyViewModelComparatorD2Ev","__ZN4rive9Rectangle6updateENS_13ComponentDirtE","__ZNK4rive4Path11localBoundsEv","_riveDataContextViewModelInstance","__ZN4rive8Renderer6rotateEf","__ZN4rive11RenderPaintD0Ev","_ma_spatializer_set_directional_attenuation_factor","_ma_panner_set_pan","_rawTextInputSetOverflow","__ZN4rive21ScriptedDataConverter11addPropertyEPNS_14CustomPropertyE","_VP8ParseIntraModeRow","__ZN4rive19SystemStateInstance7advanceEfPNS_20StateMachineInstanceE","_ma_encoder_init_file","__ZNK4rive16ViewModelRuntime13propertyCountEv","__ZN4rive20LayoutComponentStyle18marginRightChangedEv","__ZN4rive28StateMachineListenerImporterC1EPNS_20StateMachineListenerE","__ZN4rive14LinearGradient14updateDeformerEv","_rive_hb_ot_var_get_axis_count","_SearchColorNoIdx","_yogaStyleSetFlexBasis","_VP8GetHeaders","_yogaNodeCheckAndResetUpdated","__ZNK4rive33FormulaTokenArgumentSeparatorBase5cloneEv","_rive_hb_buffer_set_invisible_glyph","__ZNK4rive14GrTriangulator23mergeCoincidentVerticesEPNS0_10VertexListERKNS0_10ComparatorE","_ma_linear_resampler_set_rate_ratio","__ZN4rive26ElasticScrollPhysicsHelper3runEffffNSt3__16vectorIfNS1_9allocatorIfEEEEff","__ZNK4rive26DataConverterStringPadBase5cloneEv","_inflateReset","_lua_tounsignedx","__ZN4rive19ScriptedDataContext10pushParentEv","__ZN4rive34StateMachineLayerComponentImporterC2EPNS_26StateMachineLayerComponentE","_ma_waveform_set_frequency","__ZN4rive14NSlicerHelpers32deformWorldRenderPathWithNSlicerERKNS_11NSlicedNodeERNS_7RawPathE","_ma_lpf_get_heap_size","_rive_hb_font_funcs_set_glyph_contour_point_func","_ma_device_set_master_volume_db","__ZN4rive22ScriptedListenerAction11addPropertyEPNS_14CustomPropertyE","__ZN4rive16ScriptedArtboard8instanceEP9lua_State","__ZN4rive24ForegroundLayoutDrawable18localClockwisePathEv","__ZThn248_N4rive18ScriptedPathEffect16advanceComponentEfNS_12AdvanceFlagsE","__ZN4rive22ScriptedPropertyNumberC1EP9lua_StateNS_3rcpINS_23ViewModelInstanceNumberEEE","_hydro_sign_keygen_deterministic","_rive_hb_blob_create_from_file_or_fail","_rive_YGConfigSetErrata","__ZNK4rive31TransitionArtboardConditionBase5cloneEv","__ZN4rive14GrTriangulator12allocateEdgeEPNS0_6VertexES2_iNS0_8EdgeTypeE","__ZThn376_N4rive5Shape9localPathEv","_rive_YGNodeStyleGetAlignSelf","__ZNK4rive23CustomPropertyGroupBase5cloneEv","_ma_copy_and_apply_volume_factor_per_channel_f32","__Z24ma_mp3_seek_to_pcm_frameP6ma_mp3y","_WebPRescalerDspInitNEON","_deleteViewModelRuntime","__ZN4rive15LayoutComponent7onDirtyENS_13ComponentDirtE","_ma_pcm_convert","__ZN4rive3gpu15cast_f32_to_f16EDv4_f","_inflateMark","__ZN4rive15LayoutComponent12forcedHeightEf","_renderPathPreciseLength","_lua_topointer","_rive_YGNodeStyleGetMinWidth","_ma_delay_set_dry","__ZNK4rive5Scene10getTriggerERKNSt3__112basic_stringIcNS1_11char_traitsIcEENS1_9allocatorIcEEEE","_rive_hb_font_paint_glyph","_rive_png_image_error","_ma_dr_mp3dec_decode_frame","__ZThn392_N4rive15LayoutComponent9drawProxyEPNS_8RendererE","_ma_lpf2_get_latency","__ZN4rive24DataConverterRangeMapper14calculateRangeEPNS_9DataValueEffff","_rive_png_read_info","__ZN4rive13DrawableProxy17hittableComponentEv","__ZN4rive3gpu9PaintData3setENS0_12DrawContentsENS0_9PaintTypeENS0_16SimplePaintValueENS0_17GradTextureLayoutEjbNS_9BlendModeE","_yogaStyleGetFlexGrow","__ZN4rive4Bone13lengthChangedEv","_ma_loshelf2_uninit","_WebPRescalerGetScaledDimensions","__Z9ma_dlopenP6ma_logPKc","__ZN15WrappedDataBind14deleteDataBindEv","_ma_dr_wav_alaw_to_s16","__ZN4rive20LayoutComponentStyle28gapVerticalUnitsValueChangedEv","__ZN4rive4Solo12onAddedCleanEPNS_11CoreContextE","_rive_YGNodeSetIsReferenceBaseline","__ZN4rive19LayoutAnimationData4copyERKS0_","__ZN4rive17TextModifierGroup20modifierFlagsChangedEv","_ma_fence_init","__ZNK4rive15GroupEffectBase5cloneEv","_rive_png_longjmp","__ZN4rive11KeyedObject5applyEPNS_8ArtboardEff","__ZN4rive11KeyedObject12onAddedCleanEPNS_11CoreContextE","_ma_dr_wav_s16_to_s32","__ZN4rive13ListenerGroupD1Ev","__ZNK4rive10AudioAsset13fileExtensionEv","_rive_hb_font_get_glyph_extents_for_origin","_ma_spatializer_process_pcm_frames","_setStateMachineInputChangedCallback","__ZN4rive19KeyedObjectImporterC1EPNS_11KeyedObjectE","__ZN4rive17StateMachineLayer6importERNS_11ImportStackE","_ma_sound_group_set_stop_time_in_milliseconds","_rive_png_write_gAMA_fixed","__ZN4rive14ShapePaintPath16addPathClockwiseERKNS_7RawPathEPKNS_5Mat2DE","_ma_pulsewave_seek_to_pcm_frame","__ZThn448_N4rive21ArtboardComponentList11setItemSizeENS_5Vec2DEi","__ZN4rive21InterpolatingKeyFrame12onAddedDirtyEPNS_11CoreContextE","_png_set_cLLI_fixed","__ZN4rive20StateMachineInstance15advanceAndApplyEf","__ZThn184_N4rive18ScriptedPathEffect11addPropertyEPNS_14CustomPropertyE","_inflateGetHeader","__ZN4rive19RectanglesToContour15computeContoursEv","_trimPathEffectInvalidate","_rive_png_read_filter_row_sub3_neon","__ZN4rive21ArtboardComponentList19removeVirtualizableEi","__ZThn200_N4rive11NSlicedNode11controlSizeENS_5Vec2DENS_15LayoutScaleTypeES2_NS_15LayoutDirectionE","_createRiveRenderer","_ma_pcm_s16_to_u8","__ZN4rive5Image6importERNS_11ImportStackE","__ZN4rive21ListenerGroupProvider4fromEPNS_4CoreE","__ZN4rive12RiveRenderer15clipAndPushDrawENSt3__110unique_ptrINS_3gpu4DrawENS3_15DrawReleaseRefsEEE","_rive_png_app_warning","__ZN4rive11GroupEffect15addStrokeEffectEPNS_12StrokeEffectE","_rive_png_default_write_data","__ZN4rive15LayoutComponent16advanceComponentEfNS_12AdvanceFlagsE","__ZN4rive3gpu22RenderContextMetalImpl21resizeGradientTextureEjj","__ZN4rive13KeyedProperty5applyEPNS_4CoreEff","__ZN4rive7Polygon6updateENS_13ComponentDirtE","__ZN4rive7Polygon19cornerRadiusChangedEv","__ZN4rive8Joystick13measureLayoutEfNS_17LayoutMeasureModeEfS1_","__ZN4rive15LayoutComponent10layoutNodeEi","_riveFontDummyLinker","_ma_dr_flac_read_pcm_frames_f32","__ZNK4rive21ScriptInputNumberBase5cloneEv","_rive_YGNodeCanUseCachedMeasurement","__ZNK13rive_YGConfig15shouldPrintTreeEv","_ma_resampler_get_input_latency","_rive_hb_blob_get_empty","_pathMeasureLength","__ZN4rive9SMINumberC1EPKNS_18StateMachineNumberEPNS_20StateMachineInstanceE","__ZN4rive15ScaleConstraint9constrainEPNS_18TransformComponentE","_ma_bpf2_uninit","_rive_jpeg_idct_ifast","__ZN4rive10PathVertex17markGeometryDirtyEv","_ma_channel_map_is_equal","__ZN4rive3gpu13RenderContext12LogicalFlush19pushMidpointFanDrawEPKNS0_8PathDrawENS0_8DrawTypeEjjNS0_15ShaderMiscFlagsE","_hydro_hash_update","__ZN4rive14ScriptedObject14setStringInputENSt3__112basic_stringIcNS1_11char_traitsIcEENS1_9allocatorIcEEEES7_","__ZN4rive20LayoutComponentStyle13interpolationEv","__ZN4rive5Shape12onAddedCleanEPNS_11CoreContextE","__Z29luaopen_rive_renderer_libraryP9lua_State","__ZNK4rive5Scene7getBoolERKNSt3__112basic_stringIcNS1_11char_traitsIcEENS1_9allocatorIcEEEE","_ma_peak2_init_preallocated","__ZN4rive8Artboard13rootTransformERKNS_5Vec2DE","__ZN4rive8Drawable15isChildOfLayoutEPNS_15LayoutComponentE","_ma_engine_init","__ZNK4rive20DataConverterFormula5cloneEv","__ZN4rive21ScriptedPropertyColor9pushValueEv","__Z17rive_YGValueEqualRK12rive_YGValueS1_","__ZN4rive4Path9addVertexEPNS_10PathVertexE","__ZThn160_N4rive11GroupEffect15addStrokeEffectEPNS_12StrokeEffectE","__ZNK4rive20ScrollConstraintBase5cloneEv","__ZN4rive17BackboardImporter21addArtboardReferencerEPNS_18ArtboardReferencerE","__ZNK4rive18NestedStateMachine7hitTestENS_5Vec2DE","__ZNK4rive8Artboard24defaultStateMachineIndexEv","_ma_sound_group_set_max_distance","_deleteComponent","__ZThn200_N4rive11NSlicedNode13measureLayoutEfNS_17LayoutMeasureModeEfS1_","__ZN4rive8Artboard10isAncestorEPKS0_","_rive_YGNodeStyleSetAlignContent","_rive_hb_font_get_var_coords_design","__ZNK4rive11DataContext20getViewModelPropertyENSt3__16vectorIjNS1_9allocatorIjEEEE","__ZThn256_N4rive18ScriptedPathEffect12updateEffectEPNS_12PathProviderEPKNS_14ShapePaintPathEPKNS_10ShapePaintE","_rive_hb_buffer_get_empty","__ZN4rive10Constraint15strengthChangedEv","__ZN4rive28ViewModelInstanceEnumRuntime5valueENSt3__112basic_stringIcNS1_11char_traitsIcEENS1_9allocatorIcEEEE","_ma_malloc","__ZN4rive14ParametricPath14originXChangedEv","__ZThn376_N4rive21ArtboardComponentList22markHostingLayoutDirtyEPNS_16ArtboardInstanceE","_rive_hb_font_funcs_set_glyph_h_advance_func","_getSoundVolume","_stateMachineDataContext","__Z22luaopen_rive_artboardsP9lua_State","__ZN4rive16EffectsContainer17invalidateEffectsEv","__ZN4rive9DrawRules12onAddedCleanEPNS_11CoreContextE","__ZN4rive4Text10updateListEPNSt3__16vectorINS_3rcpINS_25ViewModelInstanceListItemEEENS1_9allocatorIS5_EEEE","__ZNK4rive4AABB8containsENS_5Vec2DE","__ZNK4rive8Joystick5applyEPNS_8ArtboardE","__Z25ma_flac_seek_to_pcm_frameP7ma_flacy","__ZN11rive_YGNode14setMeasureFuncEPF6YGSizePS_f18rive_YGMeasureModefS2_PvE","_VP8LGetInfo","__ZN4rive22CubicValueInterpolator17computeParametersEv","__ZNK4rive11AudioSource6formatEv","__ZN4rive12DataBindPath8copyPathERKNS_16DataBindPathBaseE","__ZN11rive_YGNode11setPositionE16rive_YGDirectionfff","__ZN4rive5AxisY12onAddedDirtyEPNS_11CoreContextE","_rive_hb_ot_var_get_axis_infos","__ZNK4rive21ScriptedDataConverter5cloneEv","__ZN4rive11AudioSourceC1ENS_11SimpleArrayIhEE","__ZN4rive10NestedBool10applyValueEv","_rive_hb_buffer_set_unicode_funcs","_ma_dr_mp3_open_memory_and_read_pcm_frames_f32","_rive_YGAssertWithNode","_rive_hb_ot_layout_get_baseline_with_fallback","__ZN4rive24ForegroundLayoutDrawable9localPathEv","__ZN4rive16ScriptedDrawable6updateENS_13ComponentDirtE","__ZN4rive21ScriptedPropertyColorC1EP9lua_StateNS_3rcpINS_22ViewModelInstanceColorEEE","_rive_png_set_compression_method","_rive_png_get_cHRM_XYZ_fixed","_hydro_secretbox_decrypt","__ZNK4rive19LayoutComponentBase5cloneEv","__ZNK4rive14SolidColorBase5cloneEv","__ZN4rive22TextFollowPathModifier17buildDependenciesEv","_ma_spatializer_get_velocity","__ZN4rive3gpu13RenderContext10beginFrameERKNS1_15FrameDescriptorE","_rive_png_read_end","_png_get_mDCV","__ZNK4rive3gpu13RenderContext31frameSupportsImagePaintForPathsEv","__ZThn16_N4rive27ScriptedTransitionCondition19disposeScriptInputsEv","__ZN4rive30ViewModelInstanceStringRuntime5valueENSt3__112basic_stringIcNS1_11char_traitsIcEENS1_9allocatorIcEEEE","__ZThn448_N4rive21ArtboardComponentList19removeVirtualizableEi","_lua_namecallatom","__ZNK4rive21ListenerTriggerChange7performEPNS_20StateMachineInstanceENS_5Vec2DES3_i","_rive_png_get_text","_trimPathEffectGetStart","_yogaStyleGetJustifyContent","__ZNK4rive29ViewModelInstanceColorRuntime5valueEv","__ZN4rive20StateMachineInstance7dragEndENS_5Vec2DEfi","__ZNK4rive5Image5widthEv","_createVMIRuntimeFromName","_VP8GetSignedValue","_rive_hb_buffer_add","__ZThn168_N4rive18ScriptedPathEffect15markNeedsUpdateEv","__ZN4rive18TransformComponent15updateTransformEv","__ZN4rive7Feather12onAddedDirtyEPNS_11CoreContextE","__ZN4rive21ArtboardComponentList24setVirtualizablePositionEiNS_5Vec2DE","__ZNK4rive18ListenerBoolChange7performEPNS_20StateMachineInstanceENS_5Vec2DES3_i","_rive_png_warning_parameter_unsigned","_setNumberValue","_luaL_newmetatable","__ZN4rive19ArtboardListMapRule12onAddedDirtyEPNS_11CoreContextE","__ZN4rive24DataConverterRangeMapper15maxInputChangedEv","__ZThn424_N4rive4Text14markPaintDirtyEv","_lua_lessthan","__ZN4rive21ArtboardComponentList6updateENS_13ComponentDirtE","__ZN4rive4File15registerScriptsEv","__ZNK4rive8BoneBase5cloneEv","__ZNK4rive8Artboard7layoutXEv","_rive_hb_buffer_set_segment_properties","__ZN4rive24DataBindContextValueList5applyEPNS_4CoreEjb","__ZN4rive8DashPath25offsetIsPercentageChangedEv","_rive_png_set_read_user_chunk_fn","__ZN4rive14ScriptedLayout11addPropertyEPNS_14CustomPropertyE","__ZNK4rive10NestedBool11nestedValueEv","__ZNK4rive14GrTriangulator20appendPointToContourERKNS_5Vec2DEPNS0_10VertexListE","_luaL_optvector","_unrefAudioReader","__ZThn176_N4rive19ScriptInputArtboardD0Ev","__ZNK4rive33DataConverterSystemDegsToRadsBase5cloneEv","__ZN4rive22ViewModelInstanceValue8advancedEv","_VP8Delete","__ZN4rive27ScriptedTransitionCondition19disposeScriptInputsEv","__ZN4rive4File11stripAssetsENS_4SpanIKhEENSt3__13setItNS4_4lessItEENS4_9allocatorItEEEEPNS_12ImportResultE","_rive_png_get_tRNS","_crc32_z","_ma_device_init_ex","_ma_apply_volume_factor_s24","__ZN4rive12RawTextInput6insertERKNSt3__112basic_stringIcNS1_11char_traitsIcEENS1_9allocatorIcEEEE","__ZNK4rive12TriangleBase5cloneEv","__ZNK4rive14ContourMeasure7Segment7extractEPNS_7RawPathEffPKNS_5Vec2DEb","_ma_dr_wav_s24_to_f32","_ma_sound_set_position","_rive_hb_font_set_ppem","__ZNK4rive4File8artboardEv","__ZN4rive19FileAssetReferencer18registerReferencerERNS_11ImportStackE","_lua_pushvalue","__ZN4rive12StrokeEffect16invalidateEffectEPNS_12PathProviderE","_rive_png_reciprocal2","__ZN4rive18NestedStateMachine9pointerUpENS_5Vec2DEi","__ZN4rive12RiveRenderer8clipPathEPNS_10RenderPathE","__ZN4rive11AudioReaderC1ENS_3rcpINS_11AudioSourceEEEj","__ZN4rive7PolygonC2Ev","_ma_dr_flac_open_memory","_setArtboardTestBoundsCallback","__ZN4rive13ManifestAsset11decodeNamesERNS_12BinaryReaderE","__ZThn400_N4rive16ArtboardInstanceD0Ev","_yogaStyleGetFlexWrap","_ma_audio_buffer_ref_at_end","__ZNK4rive18ScriptedLayoutBase5cloneEv","__ZN4rive12RawTextInput4redoEv","_ma_copy_pcm_frames","_ma_dr_wav_init_file_write","_deflateInit2_","__ZN4rive16ScriptedArtboardD1Ev","__ZNK4rive11GlyphLookup5countEj","__ZThn400_N4rive15LayoutComponent9localPathEv","__ZN4rive16ArtboardImporter12addComponentEPNS_4CoreE","_rive_png_get_mem_ptr","__ZN4rive20StateMachineInstance16markNeedsAdvanceEv","_ma_spatializer_set_rolloff","__Z9ma_strcmpPKcS0_","_VP8LColorCacheClear","__ZN4rive8Artboard6unbindEv","__ZNK4rive29ViewModelInstanceArtboardBase5cloneEv","__ZN4rive14NestedArtboard4nestEPNS_8ArtboardE","__ZN4rive12RenderBufferC2ENS_16RenderBufferTypeENS_17RenderBufferFlagsEm","_rive_hb_buffer_normalize_glyphs","__ZN4rive9TextStyleC1Ev","_rive_png_get_current_pass_number","_rive_png_formatted_warning","_ma_copy_and_apply_volume_factor_pcm_frames_u8","__ZN4rive20BlendState1DInstanceC1EPKNS_12BlendState1DEPNS_16ArtboardInstanceE","_ma_dr_mp3dec_f32_to_s16","__ZNK4rive8Artboard9animationERKNSt3__112basic_stringIcNS1_11char_traitsIcEENS1_9allocatorIcEEEE","_ma_notch2_get_latency","_rive_hb_font_funcs_set_nominal_glyph_func","_ma_rb_seek_read","_rive_jinit_marker_reader","_ma_dr_wav_bytes_to_u32","_ma_loshelf_node_reinit","__ZN4rive14NestedArtboard12worldToLocalENS_5Vec2DEPS1_","__ZN4rive16PropertyRecorder20writeTotalPropertiesEjRNS_18VectorBinaryWriterE","_ma_notch2_init","_lua_replace","__ZNK4rive14NestedArtboard5inputENSt3__112basic_stringIcNS1_11char_traitsIcEENS1_9allocatorIcEEEES7_","_ma_node_get_state","__ZN4rive20StateMachineImporter7resolveEv","_rive_hb_font_get_glyph_contour_point_for_origin","__ZN4rive27ViewModelInstanceAssetImageC1Ev","__ZNK4rive12TextValueRun6offsetEv","_rive_png_get_x_offset_pixels","__ZNK4rive11EllipseBase5cloneEv","_lua_rawseti","_rive_hb_shape_plan_create_cached","__ZThn456_N4rive21ArtboardComponentList18listItemTransformsERNSt3__16vectorIPNS_5Mat2DENS1_9allocatorIS4_EEEE","__ZN4rive3gpu18StorageTextureSizeEmNS0_22StorageBufferStructureE","_hydro_kx_xx_2","_ma_loshelf2_init_preallocated","_rive_hb_font_get_ppem","_WebPDecodeBGRA","_WebPYuv444ToRgb565_C","__ZNK4rive27ViewModelInstanceAssetImage5cloneEv","__ZNK4rive28ViewModelInstanceEnumRuntime10dataValuesEv","__Z23ma_vfs_or_default_closePvS_","__ZNK13rive_YGConfig9getErrataEv","_rive_hb_unicode_funcs_create","__ZN4rive23LinearAnimationInstance15advanceAndApplyEf","__ZNK4rive7RawText6sizingEv","__ZN4rive8Artboard19initScriptedObjectsEv","__ZN4rive20NestedArtboardLayout21instanceHeightChangedEv","__ZN4rive16ScriptedArtboardC1EP9lua_StateNS_3rcpINS_4FileEEEONSt3__110unique_ptrINS_16ArtboardInstanceENS6_14default_deleteIS8_EEEE","__ZN4rive20DataBindContextValueC2EPNS_8DataBindE","_ma_dr_wav_fourcc_equal","_ma_sound_group_get_position","__ZN4rive17TextModifierGroup12onAddedDirtyEPNS_11CoreContextE","__ZN4rive9Rectangle21cornerRadiusBRChangedEv","_lua_getargument","_rive_png_set_filler","_rive_YGNodeLayoutGetMargin","__ZN15WrappedDataBindC1EPN4rive8DataBindE","__ZN4rive15LayoutComponent8collapseEb","__ZNK4rive4File23createViewModelInstanceENSt3__112basic_stringIcNS1_11char_traitsIcEENS1_9allocatorIcEEEE","__ZNK4rive26CubicInterpolatorComponent9transformEf","__ZN15WrappedArtboardD0Ev","__ZN4rive17BackboardImporter15addInterpolatorEPNS_20KeyFrameInterpolatorE","__ZNK4rive3gpu16DeepHashGradientclERKNS0_18GradientContentKeyE","__ZNK4rive17KeyFrameColorBase5cloneEv","_hb_coretext_font_get_ct_font","__ZN4rive19KeyedObjectImporter16addKeyedPropertyENSt3__110unique_ptrINS_13KeyedPropertyENS1_14default_deleteIS3_EEEE","__ZN4rive3gpu22RenderContextMetalImpl9postFlushERKNS0_13RenderContext14FlushResourcesE","__ZNK4rive21FileAssetContentsBase5cloneEv","__ZN4rive6Weight6deformENS_5Vec2DEjjRKNS_5Mat2DEPKf","_ma_vfs_open_and_read_file","__ZN4rive3gpu23RenderContextHelperImpl19unmapGradSpanBufferEm","__ZN4rive18ScriptInputTriggerD0Ev","_vmiListRuntimeAddInstance","__ZN4rive4Node13computedRootYEv","__ZN4rive29ViewModelInstanceListImporter7resolveEv","_ma_decode_from_vfs","_rive_png_set_tRNS","__Z17preCommitCallbackPU27objcproto16MTLCommandBuffer11objc_objectPvS1_S1_","__ZN4rive19ListenerInputChange6importERNS_11ImportStackE","__ZN4rive14NestedArtboard13measureLayoutEfNS_17LayoutMeasureModeEfS1_","_VP8Status","_rive_hb_buffer_get_cluster_level","_VP8LPredictor5_C","__ZN4rive17BackboardImporter11addArtboardEPNS_8ArtboardE","__ZThn376_N4rive5Shape9worldPathEv","__ZNK4rive17ListenerFireEvent7performEPNS_20StateMachineInstanceENS_5Vec2DES3_i","__Z37ma_device_info_add_native_data_formatP14ma_device_info9ma_formatjjj","__ZThn200_N4rive10AudioEvent7assetIdEv","__ZNK4rive4Mesh5cloneEv","__Z22ma_wav_get_data_formatP6ma_wavP9ma_formatPjS3_Phm","__ZN4rive20NestedArtboardLayout29instanceWidthScaleTypeChangedEv","__ZN4rive16TextStyleFeature12onAddedDirtyEPNS_11CoreContextE","_ma_lpf1_config_init","_rive_jpeg_idct_4x2","__ZN4rive12RawTextInput8overflowENS_12TextOverflowE","_rive_YGNodeStyleGetWidth","_ma_data_source_get_cursor_in_seconds","__ZNK4rive10FolderBase5cloneEv","__ZN4rive19TextVariationHelper6updateENS_13ComponentDirtE","__ZNK4rive22ScriptedListenerAction15performStatefulEPNS_20StateMachineInstanceENS_5Vec2DES3_i","__ZN4rive14NestedArtboard20referencedArtboardIdEv","__ZN4rive10StyledText6appendENS_3rcpINS_4FontEEEfffRKNSt3__112basic_stringIcNS4_11char_traitsIcEENS4_9allocatorIcEEEEt","__ZN4rive15LayoutComponent13measureLayoutEfNS_17LayoutMeasureModeEfS1_","_ma_dr_wav_f64_to_f32","__ZN4rive12RiveRenderer9applyClipEPNS_3gpu4DrawE","__ZN4rive21ArtboardComponentListD1Ev","_ma_device_set_master_volume","_ma_dr_wav_free","_rive_jpeg_idct_11x11","_WebPYuv444ToRgba4444_C","__ZN4rive14AnimationReset18writePropertyValueEf","__ZNK4rive14ImageAssetBase5cloneEv","__ZN4rive18TransformComponent13scaleXChangedEv","_textValueRunPath","__ZN4rive10Constraint12onAddedDirtyEPNS_11CoreContextE","_GetColorPalette","__ZN4rive8DataBind7canSkipEv","_trimPathEffectSetEnd","__ZN4rive21ArtboardComponentList22markHostingLayoutDirtyEPNS_16ArtboardInstanceE","_ma_biquad_init","_rive_png_destroy_info_struct","__ZThn408_NK4rive14NestedArtboard4fileEv","__ZN4rive25DataConverterInterpolatorD0Ev","_rive_png_set_shift","__ZN15WrappedArtboardD1Ev","__ZNK4rive4Text23modifierRangesNeedShapeEv","_rive_hb_font_get_glyph_name","_rive_YGNodeMarkDirty","__ZNK4rive15LinearAnimation20reportKeyedCallbacksEPNS_21KeyedCallbackReporterEfffb","__ZN4rive17TextModifierGroup15computeRangeMapENS_4SpanIKjEERKNS_11SimpleArrayINS_9ParagraphEEERKNS4_INS4_INS_9GlyphLineEEEEERKNS_11GlyphLookupE","__ZN4rive21ArtboardComponentList7hitTestEPNS_7HitInfoERKNS_5Mat2DE","_ma_paged_audio_buffer_config_init","_rive_jpeg_start_output","_ma_rb_uninit","__ZN4rive3gpu23RenderContextHelperImpl26resizeTessVertexSpanBufferEm","__ZN4rive20LayoutComponentStyle16borderTopChangedEv","_inflateInit2_","__ZN4rive17TextModifierRange12computeRangeENS_4SpanIKjEERKNS_11SimpleArrayINS_9ParagraphEEERKNS4_INS4_INS_9GlyphLineEEEEERKNS_11GlyphLookupE","__ZNK4rive16GradientStopBase5cloneEv","__ZN4rive11DataContext17viewModelInstanceENS_3rcpINS_17ViewModelInstanceEEE","_WebPSetWorkerInterface","_yogaStyleGetDimension","_ma_hpf1_get_heap_size","_rive_png_chunk_warning","_rive_png_get_user_chunk_ptr","__ZN4rive18ScriptInputTriggerD2Ev","_ma_encoder_init_vfs_w","_WebPMalloc","__ZThn144_N4rive12TargetEffect11parentPaintEv","_ma_get_bytes_per_sample","__ZN4rive17TextModifierGroup14originXChangedEv","_ma_sound_set_direction","_rive_png_set_crc_action","__ZN4rive20NestedArtboardLayout30instanceHeightScaleTypeChangedEv","__ZN4rive8DataEnum5valueEj","_ma_lpf2_process_pcm_frames","__ZN4rive14NestedArtboard16clearDataContextEv","__ZN4rive17TextModifierGroup25onTextWorldTransformDirtyEv","_yogaNodeSetStyle","__ZN4rive18CoreObjectListenerD0Ev","__ZN4rive23PropertySymbolDependentD2Ev","__ZN4rive20DataConverterFormula14addOutputTokenEPNS_12FormulaTokenEi","__ZN4rive14ParametricPath13markPathDirtyEb","__ZN4rive21ArtboardComponentList15updateDataBindsEv","_artboardDrawInternal","__ZN4rive25ViewModelInstanceArtboard10applyValueEPNS_16DataValueIntegerE","_rive_png_build_gamma_table","_WebPYuv444ToArgb_C","__ZN4rive16ScriptedRenderer8clipPathEP9lua_StatePNS_16ScriptedPathDataE","__ZN4rive8Joystick11controlSizeENS_5Vec2DENS_15LayoutScaleTypeES2_NS_15LayoutDirectionE","_rive_hb_unicode_funcs_reference","__ZN4rive18ScriptedPathEffect10scriptInitEP9lua_State","_ma_data_source_node_set_looping","_destroyRiveRendererContext","_ma_semaphore_release","_SBParagraphGetLevelsPtr","_VP8LDelete","__ZN4rive8TriangleC2Ev","__ZN4rive20LayoutComponentStyle21directionValueChangedEv","_rive_png_free","__ZN4rive20DataConverterFormula13getPrecedenceEPNS_12FormulaTokenE","__ZN4rive16ScrollConstraint14scrollPercentXEv","__ZN4rive20DataBindContextValue13applyToSourceEPNS_4CoreEjb","__ZN4rive21ViewModelInstanceList4itemEj","_inflateResetKeep","__ZN19FlutterVertexBufferD0Ev","__ZNK4rive11DataContext28getRelativeViewModelPropertyENSt3__16vectorIjNS1_9allocatorIjEEEEPNS_12DataResolverE","__ZN4rive4Text7hitTestEPNS_7HitInfoERKNS_5Mat2DE","_ma_sound_is_looping","__ZThn64_N4rive20StateMachineInstance6rebindEv","__ZNK4rive19LinearAnimationBase5cloneEv","_rive_png_set_compression_window_bits","__ZN4rive14AnimationReset5applyEPNS_8ArtboardE","_ma_spinlock_unlock","_ma_sound_get_length_in_pcm_frames","_SBLineRetain","__ZN4rive21ArtboardComponentList13mainAxisIsRowEv","__ZNK4rive7RawText8overflowEv","__ZN4rive10ImageAsset11renderImageENS_3rcpINS_11RenderImageEEE","_hydro_kx_keygen_deterministic","_ma_noise_uninit","_rive_hb_set_is_empty","__ZN4rive20DataConverterFormula9getRandomEi","__ZNK4rive25FormulaTokenOperationBase5cloneEv","__ZThn136_N4rive28ScriptInputViewModelProperty17initScriptedValueEv","_WebPYuv444ToBgr_C","__ZN4rive12TargetEffect12onAddedCleanEPNS_11CoreContextE","__ZN4rive12RiveRendererD0Ev","__ZN4rive14GrTriangulator9splitEdgeEPNS0_4EdgeEPNS0_6VertexEPNS0_8EdgeListEPS4_RKNS0_10ComparatorE","__ZN4rive7Factory14makeRenderPathERKNS_4AABBE","__ZNK4rive15LinearAnimation12startSecondsEv","_getVMIListRuntimeSize","_ma_dr_wav_read_raw","_ma_mutex_unlock","_rive_YGNodeIsReferenceBaseline","_ma_spatializer_get_rolloff","__ZN4rive3gpu23RenderContextHelperImpl24resizeFlushUniformBufferEm","__ZN4rive12BinaryWriter5writeEt","__ZN4rive20LayoutComponentStyle13alignmentTypeEv","__ZN4rive13KeyedPropertyC2Ev","__ZThn424_N4rive20NestedArtboardLayout14updateArtboardEPNS_25ViewModelInstanceArtboardE","__ZN4rive13ClippingShape16isVisibleChangedEv","__ZNK4rive12RawTextInput7flaggedENS0_5FlagsE","__ZN4rive8Artboard12addAnimationEPNS_15LinearAnimationE","__ZN4rive16ScriptedDrawable6importERNS_11ImportStackE","_rive_hb_aat_layout_feature_type_get_selector_infos","__ZThn176_N4rive19ScriptInputArtboard14updateArtboardEPNS_25ViewModelInstanceArtboardE","__ZNK4rive7Contour11isClockwiseEv","__ZThn176_N4rive9TextStyle7assetIdEv","_ma_sound_group_get_min_distance","__ZN4rive25StateMachineLayerImporterC1EPNS_17StateMachineLayerEPKNS_8ArtboardE","__ZN18FlutterRenderPaintD1Ev","_ma_audio_buffer_uninit_and_free","__ZNK4rive8DashBase5cloneEv","_rive_jpeg_free_small","__ZN4rive3gpu23RenderContextHelperImpl17mapPaintAuxBufferEm","_ma_sound_set_stop_time_with_fade_in_milliseconds","__ZN4rive20LayoutComponentStyle16borderRightUnitsEv","__ZN4rive19SystemStateInstanceC1EPKNS_10LayerStateEPNS_16ArtboardInstanceE","_luaL_getmetafield","_rive_png_handle_unknown","__ZN4rive3gpu13RenderContext12LogicalFlush15layoutResourcesERKNS1_14FlushResourcesEmPNS2_16ResourceCountersEPNS2_14LayoutCountersE","__ZN4rive20LayoutComponentStyle25minWidthUnitsValueChangedEv","__ZThn16_NK4rive22ScriptedListenerAction19cloneScriptedObjectEPNS_17DataBindContainerE","_ma_pcm_f32_to_u8","_SBMirrorLocatorRelease","__ZN11rive_YGNode27setLayoutLastOwnerDirectionE16rive_YGDirection","__ZN4rive15LayoutComponent11parentIsRowEb","_hydro_pwhash_reencrypt","__ZThn376_N4rive5Shape18localClockwisePathEv","_ma_hpf_init_preallocated","_rive_YGNodeCalculateLayout","__Z19ma_flac_init_file_wPKwPK26ma_decoding_backend_configPK23ma_allocation_callbacksP7ma_flac","_rive_hb_blob_create_or_fail","_rive_png_set_gAMA_fixed","_WebPParseHeaders","_ma_rb_commit_write","__ZN4rive20StateMachineInstance21bindViewModelInstanceENS_3rcpINS_17ViewModelInstanceEEE","__ZNK4rive16StateMachineBase5cloneEv","_rive_png_set_chunk_cache_max","__ZNK4rive16ViewModelRuntime14createInstanceEv","_addRawPath","__ZN4rive17ScriptedDataValueD1Ev","_ma_clip_samples_f32","_rive_png_get_channels","_rive_YGAssertWithConfig","__ZN4rive11PathMeasureC2EPKNS_7RawPathEf","_VP8DecompressAlphaRows","__ZNK4rive14RiveRenderPath19isClockwiseDominantERKNS_5Mat2DE","_crc32_combine_op","_inflateSync","__ZN4rive9SliceMesh11vertexStopsERKNSt3__16vectorIfNS1_9allocatorIfEEEENS_8AxisTypeE","__ZThn376_N4rive15TextInputCursor18localClockwisePathEv","_rive_YGNodeLayoutGetBorder","_WebPDecodeRGBAInto","__ZN4rive26DataConverterBooleanNegate7convertEPNS_9DataValueEPNS_8DataBindE","__ZN4rive12BinaryWriter12writeVarUintEy","_ma_peak2_config_init","__ZN4rive24BlendStateDirectInstanceC1EPKNS_16BlendStateDirectEPNS_16ArtboardInstanceE","__ZN4rive15LayoutComponent27clearInheritedInterpolationEv","_rive_jpeg_abort","__ZN4rive21ScriptedDataConverter7convertEPNS_9DataValueEPNS_8DataBindE","__ZN4rive20NestedArtboardLayout30instanceWidthUnitsValueChangedEv","_rive_hb_font_get_glyph_h_origin","__ZNK4rive18ContourMeasureIter11addQuadSegsEPNS_14ContourMeasure7SegmentEPKNS_5Vec2DEjjf","_ma_engine_listener_set_position","_ma_pulsewave_set_sample_rate","_rawTextInputGetOverflow","__ZN4rive9TextStyle20letterSpacingChangedEv","_rive_png_get_bit_depth","_ma_paged_audio_buffer_data_get_head","_rive_png_calloc","__ZN4rive14RiveRenderPath22addRenderPathBackwardsEPNS_10RenderPathERKNS_5Mat2DE","__ZNK4rive18ListenerBoolChange17validateInputTypeEPKNS_17StateMachineInputE","__ZThn432_N4rive8ListPath10updateListEPNSt3__16vectorINS_3rcpINS_25ViewModelInstanceListItemEEENS1_9allocatorIS5_EEEE","__ZN4rive15LinearAnimationC2Ev","__ZN4rive4Solo24activeComponentIdChangedEv","_ma_sound_is_playing","__ZNK4rive23LinearAnimationInstance8durationEv","__ZN4rive21NestedLinearAnimationC2Ev","__ZN4rive3gpu13RenderContext18TessellationWriterD2Ev","__tr_stored_block","_rive_png_default_flush","__ZN4rive18ScriptInputBoolean6importERNS_11ImportStackE","__ZN4rive5Shape7isEmptyEv","__ZN4rive21ScriptedDataConverterD2Ev","_lua_newbuffer","__ZN6Bitmap6decodeEPKhm","_rive_hb_face_set_user_data","__ZNK4rive30DataConverterBooleanNegateBase5cloneEv","_setViewModelInstanceArtboardValue","_WebPDemuxReleaseChunkIterator","_rive_hb_face_count","_rive_YGNodeLayoutGetRight","__ZN4rive21DataConverterToString16formatWithCommasERNSt3__112basic_stringIcNS1_11char_traitsIcEENS1_9allocatorIcEEEE","__ZNK4rive15RiveRenderPaint11getIsOpaqueEv","__ZNK4rive24StateMachineListenerBase5cloneEv","__ZN4rive23DataConverterStringTrim7convertEPNS_9DataValueEPNS_8DataBindE","__ZN4rive15LayoutComponent19markLayoutNodeDirtyEb","__ZN4rive20LayoutComponentStyle15heightScaleTypeEv","_factoryFromRiveRendererContext","__ZN4rive4AABB8expandToERS0_ff","__ZN4rive4Axis12onAddedDirtyEPNS_11CoreContextE","__ZN4rive8DataEnum8addValueEPNS_13DataEnumValueE","__ZNK4rive25CustomPropertyTriggerBase5cloneEv","_rive_jinit_huff_decoder","_rive_hb_ot_layout_has_substitution","_ma_linear_resampler_reset","__ZNK4rive20StateMachineInstance15reportedEventAtEm","__ZNK4rive23LinearAnimationInstance13isTranslucentEv","__ZN4rive21ArtboardComponentListC1Ev","__ZNK4rive7RawPath6boundsEv","_rive_hb_font_get_empty","__ZN4rive11ScriptingVM14registerModuleEP9lua_StatePKcNS_4SpanIhEE","_ma_volume_linear_to_db","_rive_hb_aat_layout_has_positioning","_WebPDecodeBGRInto","_ma_copy_and_apply_volume_factor_f32","__ZN4rive4math13eval_cubic_atEPKNS_5Vec2DEf","__ZN4rive16ScriptedDrawable7hitTestEPNS_7HitInfoERKNS_5Mat2DE","__ZNK4rive14GrTriangulator15mergeEdgesAboveEPNS0_4EdgeES2_PNS0_8EdgeListEPPNS0_6VertexERKNS0_10ComparatorE","_rive_png_get_y_offset_microns","__ZNK4rive11GlyphLookup13advanceFactorEib","_ma_engine_listener_set_velocity","__ZN4rive14LinearGradient11endXChangedEv","_rive_png_write_pHYs","__ZN4rive16BinaryDataReaderC2EPhm","__ZN4rive20LayoutComponentStyle20flexWrapValueChangedEv","__ZNK4rive12BinaryReader11didOverflowEv","__ZN4rive13cubic_extractEPKNS_5Vec2DEffPS0_","_nativeTexture","__ZNK4rive14GrTriangulator4Edge9intersectERKS1_PNS_5Vec2DEPh","_rive_hb_ot_layout_get_glyphs_in_class","_ma_sound_group_set_stop_time_in_pcm_frames","__ZN4rive12TargetEffect12updateEffectEPNS_12PathProviderEPKNS_14ShapePaintPathEPKNS_10ShapePaintE","__ZN4rive3gpu13RenderContext12LogicalFlush17pushImageRectDrawEPNS0_13ImageRectDrawE","__ZN4rive17TextSelectionPath6updateENS_4SpanINS_4AABBEEEf","__ZN4rive18RenderPathDeformer4fromEPNS_9ComponentE","__ZN4rive20ScriptReffedArtboard12stateMachineEv","_rive_YGNodeStyleSetFlexGrow","__ZN4rive22ScriptedObjectImporter7resolveEv","__ZThn408_N4rive21ArtboardComponentList16syncStyleChangesEv","__ZN4rive7RawPath4swapERS0_","__ZN4rive24ListFollowPathConstraint13constrainListEPNS_17ConstrainableListE","__ZN4rive17TextModifierGroup14clearRangeMapsEv","__ZN4rive12IKConstraint12onAddedCleanEPNS_11CoreContextE","_deflateTune","_rive_png_set_tIME","__ZN4rive18HitTestCommandPathC1ERKNS_5TAABBIiEE","__ZN4rive8DataBindD0Ev","__ZNK4rive28ViewModelPropertyTriggerBase5cloneEv","__ZN4rive26ElasticScrollPhysicsHelper7advanceEf","__ZN4rive20LayoutComponentStyle24interpolationTimeChangedEv","_ma_device_job_thread_post","_rawTextInputGetSelectionCornerRadius","__ZNK4rive5Scene5inputEm","__ZN4rive8ArtboardC2Ev","_ma_splitter_node_init","__ZNK6HBFont12getAxisValueEj","_ma_dr_wav_init_write_with_metadata","_ma_spatializer_listener_get_heap_size","__ZNK4rive28ViewModelInstanceEnumRuntime10valueIndexEv","_artboardReset","_rive_YGNodeGetConfig","__ZNK4rive18DataEnumSystemBase5cloneEv","__ZN4rive18ScriptInputBooleanD0Ev","__ZNK4rive12StateMachine5inputEm","__ZThn376_N4rive16ScriptedDrawable15addScriptedDirtENS_13ComponentDirtEb","_luaopen_os","_rive_YGNodeStyleGetDirection","__ZN4rive12EnumImporter7resolveEv","__ZN4rive5Image11controlSizeENS_5Vec2DENS_15LayoutScaleTypeES2_NS_15LayoutDirectionE","__ZN4rive9FileAsset13decodeCdnUuidENS_4SpanIKhEE","__ZN4rive7NSlicer17buildDependenciesEv","_ma_biquad_clear_cache","__ZN4rive17ScriptedPaintData12pushGradientEP9lua_State","_rive_png_malloc_base","_hydro_memzero","__ZN4rive16ScrollConstraint6importERNS_11ImportStackE","_rive_YGNodeGetOwner","__ZN4rive24DataConverterRangeMapper14reverseConvertEPNS_9DataValueEPNS_8DataBindE","_rive_hb_ot_layout_language_get_feature_indexes","__ZN4rive20FollowPathConstraint17buildDependenciesEv","_rive_hb_set_del","_rive_png_get_oFFs","__ZN4rive20LayoutComponentStyle8flexWrapEv","__ZNK4rive14GrTriangulator6setTopEPNS0_4EdgeEPNS0_6VertexEPNS0_8EdgeListEPS4_RKNS0_10ComparatorE","_rive_png_set_packswap","__ZN4rive30DataBindContextValueAssetImageC2EPNS_8DataBindE","__ZNK4rive36TransitionValueBooleanComparatorBase5cloneEv","__ZNK13rive_YGConfig28isExperimentalFeatureEnabledE21YGExperimentalFeature","__ZNK4rive5Image6heightEv","__ZNK4rive25NestedSimpleAnimationBase5cloneEv","_ma_device_job_thread_next","__ZN4rive14NestedArtboard4drawEPNS_8RendererE","__ZN4rive10AudioEvent6importERNS_11ImportStackE","__ZN6Bitmap20RecognizeImageFormatEPKhm","_ma_rb_get_subbuffer_stride","_rawTextInputSetSizing","__ZN4rive22AnimationStateInstanceC2EPKNS_14AnimationStateEPNS_16ArtboardInstanceE","__ZN4rive17BackboardImporter35addDataConverterGroupItemReferencerEPNS_22DataConverterGroupItemE","__ZN4rive12RawTextInput8cursorUpEb","__ZN4rive10Constraint7onDirtyENS_13ComponentDirtE","__ZN4rive3gpu23RenderContextHelperImpl19resizeContourBufferEmNS0_22StorageBufferStructureE","_addRawPathWithTransform","_ma_gainer_get_master_volume","_WebPDecodeRGBInto","__ZNK4rive14TextStylePaint5cloneEv","_rive_png_do_check_palette_indexes","_ma_encoder_init_file_w","__ZNK4rive5Vec2D6lengthEv","_componentSetScaleY","_rive_png_write_hIST","_rive_png_get_sCAL_s","__ZN4rive21TextInputSelectedText7hitTestEPNS_7HitInfoERKNS_5Mat2DE","_ma_hpf_node_init","_deflateReset","__ZN4rive13StateInstanceC2EPKNS_10LayerStateE","__ZN4rive14RiveRenderPathC2ENS_8FillRuleERNS_7RawPathE","__ZN4rive18LayoutNodeProvider4fromEPNS_9ComponentE","__Z17ma_pcm_s16_to_s16PvPKvy14ma_dither_mode","__ZN4rive17ScriptedDataValueD2Ev","_yogaNodeInsertChild","_ma_engine_get_listener_count","__ZNK4rive13TextInputBase5cloneEv","__ZNK4rive24BlendAnimationDirectBase5cloneEv","_WebPGetInfo","__Z9ma_wfopenPP7__sFILEPKwS3_PK23ma_allocation_callbacks","_ma_delay_set_decay","__ZThn160_N4rive11GroupEffect17invalidateEffectsEv","__ZN4rive12RawTextInput31computeVisualPositionFromCursorEv","_ma_lpf2_init","_rive_png_warning_parameter","__ZN4rive5SceneC2EPNS_16ArtboardInstanceE","_ma_waveform_config_init","_audioReaderLength","__ZThn392_N4rive16ScriptedDrawable11addPropertyEPNS_14CustomPropertyE","__ZN4rive17RiveRenderFactory14makeRenderPathERNS_7RawPathENS_8FillRuleE","__ZNK4rive14CursorPosition7clampedERKNS_15FullyShapedTextE","__Z12ma_vec3f_sub8ma_vec3fS_","__ZN4rive21DataConverterToString12convertColorEPNS_14DataValueColorE","__ZN4rive18DataConverterGroupD0Ev","__ZN4rive19ShapePaintContainer4fromEPNS_9ComponentE","__ZN4rive15LayoutComponent7hitTestEPNS_7HitInfoERKNS_5Mat2DE","__Z18rive_YGDoubleEqualdd","_ma_audio_buffer_ref_read_pcm_frames","_rive_YGNodeStyleSetMinHeightPercent","_rive_png_write_chunk_data","__ZN4rive21ArtboardComponentList19computeLayoutBoundsEv","_WebPRescalerImportRow","__ZN4rive20BlendState1DInstance5applyEPNS_16ArtboardInstanceEf","_rive_hb_face_collect_variation_selectors","__ZN4rive17TextModifierGroup14opacityChangedEv","__ZN4rive23LinearAnimationInstanceC2EPKNS_15LinearAnimationEPNS_16ArtboardInstanceEf","__ZN4rive21ArtboardComponentList13listTransformEv","_rawTextCursorRight","_SBScriptLocatorReset","__ZNK4rive9FileAsset14uniqueFilenameEv","__Z12ma_vec3f_dot8ma_vec3fS_","__ZN15WrappedArtboard15deleteDataBindsEv","_rawTextInputGetFontSize","_rive_png_set_error_fn","_WebPInitConvertARGBToYUV","_ma_fader_config_init","_hydro_kx_nk_3","__ZN4rive18ResettingComponent4fromEPNS_9ComponentE","_ma_node_set_time","_ma_dr_flac_version_string","_rive_hb_face_get_empty","_png_get_cLLI","_rive_png_permit_mng_features","__ZN4rive25ViewModelInstanceImporter8addValueEPNS_22ViewModelInstanceValueE","__ZThn2480_N4rive8Artboard15updateDataBindsEb","_rive_YGNodeStyleGetPadding","_rawTextInputGetParagraphSpacing","_rive_hb_font_get_glyph_extents","_rive_hb_ot_layout_feature_get_name_ids","_lua_tolightuserdata","_fontAxis","_rive_hb_font_set_var_named_instance","__ZN4rive9TextStyle8validateEPNS_11CoreContextE","_ma_dr_mp3_init","__ZN4rive28PropertySymbolDependentMultiC2EPNS_4CoreEPNS_18CoreObjectListenerEPNS_22ViewModelInstanceValueENSt3__16vectorItNS7_9allocatorItEEEE","_lua_tostringatom","_VP8LReadBits","__ZN4rive34StateMachineLayerComponentImporterC1EPNS_26StateMachineLayerComponentE","__ZN4rive11CubicVertex8xChangedEv","_setFallbackFonts","__ZN4rive9Component14addCollapsableEPNS_8DataBindE","__ZN4rive20LayoutComponentStyle14minHeightUnitsEv","__ZN4rive3gpu22RenderContextMetalImpl21makeStorageBufferRingEmNS0_22StorageBufferStructureE","__ZN4rive17ViewModelInstance9addParentEPS0_","__ZN4rive17TextInputDrawable12onAddedCleanEPNS_11CoreContextE","__ZN4rive12TextValueRun11textChangedEv","_appendRenderPath","__ZN4rive28DataBindContextValueArtboard5applyEPNS_4CoreEjb","__ZN4rive7RawText6updateEv","_rive_hb_face_set_upem","__ZNK4rive32TransitionViewModelConditionBase5cloneEv","__ZN4rive12BinaryWriter5writeEh","__ZN4rive14RiveRenderPath29makeSoftenedCopyForFeatheringEff","__ZN4rive20StateMachineInstance24notifyListenerViewModelsERKNSt3__16vectorIPNS_17ListenerViewModelENS1_9allocatorIS4_EEEE","__ZN4rive16ScrollConstraint20maxOffsetYForPercentEv","__ZN4rive21DataConverterToString7convertEPNS_9DataValueEPNS_8DataBindE","__ZNK6HBFont7getAxisEt","__ZN4rive12StrokeEffect10effectPathEPNS_12PathProviderE","__Z16ma_wav_init_filePKcPK26ma_decoding_backend_configPK23ma_allocation_callbacksP6ma_wav","__ZN11rive_YGNode7measureEf18rive_YGMeasureModefS0_Pv","__ZNK4rive22NestedArtboardLeafBase5cloneEv","_rawTextSetSizing","__ZNK4rive25TranslationConstraintBase5cloneEv","_riveFileViewModelRuntimeByIndex","__ZN4rive20StateMachineInstance20removeEventListenersEv","_dashPathEffectPath","_rive_png_get_sRGB","__ZNK4rive23ScrollBarConstraintBase5cloneEv","_ma_async_notification_event_wait","_riveFileArtboardToBindNamed","__ZNK4rive26ScriptedListenerActionBase5cloneEv","__ZN4rive8Artboard15markLayoutDirtyEPNS_15LayoutComponentE","_lua_pushlightuserdatatagged","_lua_rawiter","__ZN6HBFont10FromSystemEPvbth","__ZNK4rive12JoystickBase5cloneEv","__ZN4rive12RawTextInput11cursorRightENS_14CursorBoundaryEb","__ZN4rive10ShapePaint15addStrokeEffectEPNS_12StrokeEffectE","__ZN4rive17ScriptInputNumber6importERNS_11ImportStackE","_lua_toboolean","_createRiveRendererContext","_ma_gainer_config_init","_hb_buffer_get_random_state","__ZN4rive14VertexListener30createDistancePropertyListenerEv","__ZN4rive12BinaryWriterC2EPNS_12BinaryStreamE","__ZN4rive14getParentWorldERKNS_18TransformComponentE","__ZN4rive36TransitionViewModelConditionImporter7resolveEv","__ZN4rive3gpu8PathData3setERKNS_5Mat2DEffjRKNS0_14AtlasTransformERKNS0_19CoverageBufferRangeE","__ZN4rive8DashPath14invalidateDashEv","__ZThn440_N4rive15LayoutComponent16advanceComponentEfNS_12AdvanceFlagsE","__ZN4rive3gpu22RenderContextMetalImpl20makeVertexBufferRingEm","__ZN4rive16ScriptedPathData13totalCommandsEv","_hydro_pwhash_create","__ZN4rive20LayoutComponentStyle29borderBottomUnitsValueChangedEv","__ZNK4rive16DataBindPathBase5cloneEv","_rive_hb_set_destroy","__ZNK4rive25ViewModelInstanceEnumBase5cloneEv","_ma_dr_wav_init_write_sequential","_riveDataContext","__ZN4rive19FileAssetReferencerD2Ev","_rive_png_compress_IDAT","__ZN4rive16ScriptedProperty14removeListenerEv","_ma_spatializer_get_master_volume","_rive_png_sig_cmp","_vmiRuntimeGetColorProperty","__ZN4rive23PropertySymbolDependentC2EPNS_4CoreEPNS_18CoreObjectListenerEPNS_22ViewModelInstanceValueE","_rive_hb_set_get_min","__ZN4rive20DataConverterFormulaD2Ev","__ZN4rive25DataConverterNumberToList7convertEPNS_9DataValueEPNS_8DataBindE","__ZN4rive14ParametricPath11controlSizeENS_5Vec2DENS_15LayoutScaleTypeES2_NS_15LayoutDirectionE","__ZN4rive11AudioSourceC1ENS_4SpanIfEEjj","__ZN4rive18NestedStateMachineC2Ev","_rive_YGNodeFreeRecursiveWithCleanupFunc","_VP8FiltersInitNEON","__ZN4rive10ShapePaint9blendModeENS_9BlendModeE","__ZThn200_N4rive5Shape13measureLayoutEfNS_17LayoutMeasureModeEfS1_","_artboardComponentNamed","__ZN4rive20ScriptedPropertyListC2EP9lua_StateNS_3rcpINS_21ViewModelInstanceListEEE","__ZN4rive14ContourMeasureC2EONSt3__16vectorINS0_7SegmentENS1_9allocatorIS3_EEEEONS2_INS_5Vec2DENS4_IS8_EEEEfb","_ma_version_string","__ZN4rive13ManifestAsset11decodePathsERNS_12BinaryReaderE","_rive_jpeg_idct_2x4","_ma_context_get_devices","_rive_png_set_pCAL","__ZN4rive28DataBindContextValueArtboardC1EPNS_8DataBindE","__ZN4rive11ScriptingVM16unregisterModuleEPKc","_rive_hb_set_add_sorted_array","_ma_encoder_uninit","_ma_linear_resampler_init_preallocated","__ZN4rive18RotationConstraint9constrainEPNS_18TransformComponentE","_VP8LPredictor3_C","__ZN4rive20ScriptedPropertyList9pushValueEi","__ZNK4rive24ViewModelInstanceRuntime15instanceRuntimeERKNSt3__112basic_stringIcNS1_11char_traitsIcEENS1_9allocatorIcEEEE","_getVMIBooleanRuntimeValue","__ZN4rive3gpu13RenderContext12LogicalFlush17pushImageMeshDrawEPNS0_13ImageMeshDrawE","__ZN4rive7RawText5alignENS_9TextAlignE","_ma_node_set_state","__ZN4rive8DataEnum10valueIndexEj","_rive_hb_language_to_string","_makeDashPathEffect","__ZN4rive20LayoutComponentStyle31positionBottomUnitsValueChangedEv","_rive_png_chunk_error","__ZN4rive7RawPath16addPathBackwardsERKS0_PKNS_5Mat2DE","__ZNK4rive14PointsPathBase5cloneEv","__ZN4rive9SliceMesh6updateEv","__ZN4rive8Drawable12hitTestPointERKNS_5Vec2DEbb","__ZNK11rive_YGNode17getLeadingPaddingE20rive_YGFlexDirectionf","__ZN4rive19DraggableConstraint14listenerGroupsEv","__ZN4rive4Text17computeBoundsInfoEv","_pathMeasureAtDistance","__ZN4rive26DataBindContextValueString5applyEPNS_4CoreEjb","_ma_channel_converter_get_input_channel_map","__ZN4rive27ScriptedTransitionCondition6importERNS_11ImportStackE","__ZN4rive9HitTester4testENS_8FillRuleE","_ma_event_init","_rive_YGConfigSetPrintTreeFlag","__Z17ma_pcm_s24_to_s24PvPKvy14ma_dither_mode","_VP8LPredictor4_C","_ma_log_uninit","_rive_png_set_sCAL","_dashPathEffectSetOffset","__ZNK4rive7RawPath12countMoveTosEv","_ma_spatializer_listener_set_velocity","_ma_dr_wav_bytes_to_u64","__ZN4rive15LayoutComponent13mainAxisIsRowEv","__ZN4rive14NestedArtboard18referencedArtboardEPNS_8ArtboardE","__ZN4rive11NSlicedNode19updateMapWorldPointEv","_deleteRenderImage","__ZN4rive8Artboard16onComponentDirtyEPNS_9ComponentE","__ZN4rive13ManifestAsset6decodeERNS_11SimpleArrayIhEEPNS_7FactoryE","_rive_hb_font_is_immutable","_hydro_kx_nk_2","_rive_hb_ot_tags_to_script_and_language","_rawTextAppend","__ZN4rive12EnumImporterC1EPNS_8DataEnumE","_ma_spatializer_get_max_gain","_rive_hb_ot_layout_get_font_extents2","_rive_hb_buffer_get_script","_ma_device_job_thread_uninit","__Z18ma_mp3_init_file_wPKwPK26ma_decoding_backend_configPK23ma_allocation_callbacksP6ma_mp3","__ZN4rive23CubicInterpolatorSolver10calcBezierEfff","__ZNK4rive18KeyFrameStringBase5cloneEv","_hydro_kx_xx_4","__ZN4rive22ViewModelInstanceValue18suppressDelegationEv","__ZN4rive4Text14shouldDrawLineEffRKNS_9GlyphLineE","_ma_pcm_s16_to_f32","__ZThn376_N4rive21TextInputSelectedText18localClockwisePathEv","__ZN4rive5Shape8willDrawEv","_riveArtboardGetWidth","__ZThn376_N4rive21ArtboardComponentList16artboardInstanceEi","__ZN4rive11ScriptingVM14registerModuleEPKcNS_4SpanIhEE","_VP8InitClipTables","__ZNK4rive19SystemStateInstance9keepGoingEv","_ma_delay_get_wet","__ZN4rive14GrTriangulator20checkForIntersectionEPNS0_4EdgeES2_PNS0_8EdgeListEPPNS0_6VertexEPNS0_10VertexListERKNS0_10ComparatorE","_rive_hb_set_add","_ma_sound_set_min_gain","_ma_delay_uninit","_ma_engine_get_device","__ZN18FlutterIndexBufferD2Ev","_lua_close","_rive_jpeg_destroy","_WebPConvertRGBA32ToUV_C","__ZN4rive18ScriptedPathEffect16createEffectPathEv","__ZN4rive6Tendon12onAddedCleanEPNS_11CoreContextE","_rive_YGNodeStyleSetMaxHeightPercent","_rive_png_read_filter_row_paeth3_neon","__ZN11rive_YGNode17setLayoutPositionEfi","__ZN4rive14AnimationReset8completeEv","__ZNK4rive11NSlicedNode21deformWorldRenderPathERNS_7RawPathE","_rive_hb_font_draw_glyph","_rive_png_set_text_compression_strategy","__ZN4rive20DataConverterFormula7convertEPNS_9DataValueEPNS_8DataBindE","__ZThn376_N4rive21ArtboardComponentList11hitTestHostERKNS_5Vec2DEbPNS_16ArtboardInstanceE","_rive_hb_buffer_guess_segment_properties","_ma_engine_listener_get_world_up","__ZN4rive13ListenerGroup12releaseEventEi","__ZN11rive_YGNode11removeChildEj","__ZN4rive22DataBindPathReferencer18decodeDataBindPathERNS_4SpanIKhEE","__ZThn376_N4rive21ArtboardComponentList4fileEPNS_4FileE","_ma_decoding_backend_config_init","_VP8RemapBitReader","_rive_hb_language_get_default","__ZN4rive12RawTextInput9maxHeightEf","__ZNK4rive20StateMachineInstance14scriptedObjectEPKNS_14ScriptedObjectE","_rive_png_create_png_struct","_ma_audio_buffer_read_pcm_frames","_rive_jpeg_idct_1x1","_ma_dr_mp3_init_file_w","_renderPathIsClosed","__ZThn2472_N4rive8Artboard5resetEv","_ma_spatializer_listener_config_init","_yogaStyleSetAlignItems","_rive_hb_ot_layout_table_get_lookup_count","_ma_rb_acquire_write","_rive_YGNodeStyleSetOverflow","__ZN4rive26DataBindContextValueNumberC2EPNS_8DataBindE","__ZN4rive12PathComposer17buildDependenciesEv","__ZNK4rive16ViewModelRuntime22createInstanceFromNameERKNSt3__112basic_stringIcNS1_11char_traitsIcEENS1_9allocatorIcEEEE","__ZN4rive16ScriptedRenderer8validateEP9lua_State","__ZNK4rive20KeyFrameCallbackBase5cloneEv","__ZThn152_N4rive8TrimPath11parentPaintEv","__ZThn168_N4rive8DashPath14invalidateDashEv","__ZN4rive18ScriptInputBoolean12onAddedCleanEPNS_11CoreContextE","_ma_version","__ZN4rive16ScriptedPropertyD0Ev","__ZN4rive12RiveRenderer11ClipElementC1ERKNS_5Mat2DEPKNS_14RiveRenderPathENS_8FillRuleE","__ZN4rive20ScriptedPropertyListC1EP9lua_StateNS_3rcpINS_21ViewModelInstanceListEEE","__ZN4rive32ViewModelInstanceSymbolListIndex20propertyValueChangedEv","__ZN4rive8Joystick11posXChangedEv","_animationInstanceAdvance","__ZThn16_N4rive27ScriptedTransitionConditionD0Ev","__ZN4rive16ScriptedDrawable10scriptInitEP9lua_State","__ZN4rive10AudioEvent7triggerERKNS_12CallbackDataE","__ZNK4rive8Artboard4hostEv","_hydro_secretbox_probe_verify","__ZN4rive3gpu13RenderContext12LogicalFlush30allocateOuterCubicTessVerticesEj","__ZN4rive8DataBind7advanceEf","__ZN4rive7PolygonD0Ev","__ZN4rive12RiveRenderer9drawImageEPKNS_11RenderImageENS_12ImageSamplerENS_9BlendModeEf","__ZNK4rive17ShapePaintMutator13isTranslucentEv","__ZN4rive19CubicMirroredVertex15rotationChangedEv","__ZN4rive15LayoutComponent18cascadeLayoutStyleENS_24LayoutStyleInterpolationEPNS_20KeyFrameInterpolatorEfNS_15LayoutDirectionE","_ma_dr_wav_write_raw","__ZN4rive3gpu16IntersectionTile12addRectangleEDv4_is","_ma_slot_allocator_uninit","__ZN4rive5Mat2D7composeERKNS_19TransformComponentsE","__ZN4rive9HitTester4lineENS_5Vec2DE","_setVMIColorRuntimeValue","_wasmStateMachineInstanceBatchAdvance","__ZN4rive3gpu13FlushUniforms16InverseViewportsC2ERKNS0_15FlushDescriptorERKNS0_16PlatformFeaturesE","__ZN4rive20LayoutComponentStyle14marginTopUnitsEv","__ZN4rive4Text7onDirtyENS_13ComponentDirtE","_ma_pcm_u8_to_s16","_trimPathEffectPath","_ma_delay_node_get_wet","__ZN4rive23DataBindContextValueAny5applyEPNS_4CoreEjb","__ZN4rive14DashEffectPath17createPathMeasureEPKNS_7RawPathE","_yogaStyleSetOverflow","__ZNK4rive11DataContext20getViewModelInstanceEPNS_12DataBindPathE","__ZN4rive16ScriptedArtboard7advanceEf","_rive_YGConfigGetInstanceCount","__ZNK4rive22DataConverterGroupBase5cloneEv","_rive_png_set_sCAL_fixed","__ZN4rive3gpu23RenderContextHelperImpl20resizePaintAuxBufferEmNS0_22StorageBufferStructureE","_vmiListRuntimeAddInstanceAt","__ZThn400_N4rive15LayoutComponent9worldPathEv","_rawTextGetMaxWidth","_stateMachineInputName","__ZN4rive3gpu13RenderContext5flushERKNS1_14FlushResourcesE","_ma_peak_node_init","_luaL_typename","_rive_hb_ot_layout_has_glyph_classes","_rive_png_free_buffer_list","_rive_png_set_filter","__ZN4rive3gpu7TextureC1Ejj","_ma_dr_wav_mulaw_to_s32","_ma_fader_init","_ma_dr_wav_init_memory","_ma_get_backend_from_name","__ZN4rive8Artboard6importERNS_11ImportStackE","_deleteLines","_ma_dr_mp3_open_memory_and_read_pcm_frames_s16","__ZNK4rive24ViewModelInstanceRuntime13propertyColorERKNSt3__112basic_stringIcNS1_11char_traitsIcEENS1_9allocatorIcEEEE","_rive_hb_unicode_funcs_set_general_category_func","_ma_peak2_get_latency","__ZN4rive14LinearGradient14opacityChangedEv","__ZThn144_N4rive16ScriptInputColorD1Ev","__ZN4rive4Node19markLayoutNodeDirtyEv","_rive_hb_font_changed","_ma_clip_samples_s16","__ZNK4rive16ViewModelRuntime13instanceNamesEv","__ZN4rive28ScriptInputViewModelProperty19copyDataBindPathIdsERKNS_32ScriptInputViewModelPropertyBaseE","__ZN4rive16ScriptingContext19performRegistrationEP9lua_State","__ZN4rive11GroupEffect17invalidateEffectsEPNS_12StrokeEffectE","_rive_hb_buffer_get_unicode_funcs","_rive_png_handle_as_unknown","_png_set_mDCV","_lua_pushvector","__ZN4rive10KeyFrameId5applyEPNS_4CoreEif","__ZN4rive9TextStyle7assetIdEv","_ma_sound_group_get_doppler_factor","__ZNK4rive14ContourMeasure11findSegmentEf","__ZN4rive20StateMachineListenerC2Ev","__ZNK4rive7RawText16paragraphSpacingEv","_ma_channel_map_find_channel_position","__ZN4rive16computeAlignmentENS_3FitENS_9AlignmentERKNS_4AABBES4_f","__ZN4rive7Feather6updateENS_13ComponentDirtE","__ZN4rive17RiveRenderFactory18makeLinearGradientEffffPKjPKfm","_rive_hb_font_get_glyph_contour_point","__ZN4rive11KeyedObject6importERNS_11ImportStackE","__ZN4rive6Stroke16thicknessChangedEv","__ZN4rive21ViewModelInstanceList3popEv","__ZN4rive11ScriptInput4fromEPNS_4CoreE","_rive_hb_buffer_get_segment_properties","_ma_sound_get_pitch","__ZThn200_N4rive14ScriptedLayout11controlSizeENS_5Vec2DENS_15LayoutScaleTypeES2_NS_15LayoutDirectionE","_luaL_checkoption","__ZNK4rive25DataConverterNumberToList5cloneEv","__ZN4rive15LayoutComponent17updateConstraintsEv","_ma_dr_mp3_version_string","__ZThn128_N4rive13ManifestAsset11resolvePathEi","__ZN4rive3gpu23GeneratePatchBufferDataEPNS0_11PatchVertexEPt","__ZN4rive14NestedArtboard28calculateLocalElapsedSecondsEf","__ZN4rive17ViewModelInstance6symbolEi","_inflate_table","_artboardHeightOverride","_rive_hb_set_next","_ma_spatializer_set_direction","_luaopen_vector","__ZN4rive22ViewModelInstanceValue17viewModelPropertyEPNS_17ViewModelPropertyE","__ZN4rive4Text10BreakLinesERKNS_11SimpleArrayINS_9ParagraphEEEfNS_9TextAlignENS_8TextWrapE","_rive_png_gamma_correct","_luaL_checkany","__ZThn144_N4rive18ScriptInputBooleanD0Ev","_ma_sound_set_fade_in_pcm_frames","__ZN4rive25StateMachineLayerImporterC2EPNS_17StateMachineLayerEPKNS_8ArtboardE","_makeRenderer","__ZThn200_N4rive15LayoutComponent13measureLayoutEfNS_17LayoutMeasureModeEfS1_","_ma_device_get_name","__ZN4rive5Shape19pathCollapseChangedEv","_rive_hb_unicode_funcs_destroy","__ZN4rive14NSlicerHelpers7pxStopsERKNSt3__16vectorIPNS_4AxisENS1_9allocatorIS4_EEEEf","__ZN4rive17TextModifierGroup11addModifierEPNS_12TextModifierE","__ZNK4rive15LayoutComponent8isHiddenEv","_lua_getcoverage","_rive_hb_font_get_glyph_origin_for_direction","__ZN4rive23DataBindContextValueAnyC1EPNS_8DataBindE","__ZNK4rive16ViewModelRuntime13instanceCountEv","_rive_png_read_update_info","_hydro_random_ratchet","_ma_noise_init_preallocated","_ma_dr_flac_next_cuesheet_track","_ma_vfs_read","__ZNK4rive11AudioReader8channelsEv","__ZN4rive10ShapePaint4drawEPNS_8RendererEPNS_14ShapePaintPathERKNS_5Mat2DEbPNS_11RenderPaintEb","__ZNK4rive15StateTransition18applyExitConditionEPNS_13StateInstanceE","_ma_dr_mp3_read_pcm_frames_f32","__ZNK4rive5Scene9getNumberERKNSt3__112basic_stringIcNS1_11char_traitsIcEENS1_9allocatorIcEEEE","_ma_resampler_get_heap_size","_setArtboardRootTransformCallback","__ZN4rive20ScriptedPropertyEnum8setValueERKNSt3__112basic_stringIcNS1_11char_traitsIcEENS1_9allocatorIcEEEE","__ZN4rive23LinearAnimationInstanceC1EPKNS_15LinearAnimationEPNS_16ArtboardInstanceEf","__ZNK4rive26TransitionTriggerCondition10useInLayerEPKNS_20StateMachineInstanceEPNS_25StateMachineLayerInstanceE","__ZN4rive23CubicInterpolatorSolver5buildEff","_rive_hb_font_get_glyph_v_origin","__ZN4rive8Artboard6volumeEf","__ZNK4rive8Artboard8hasAudioEv","_ma_biquad_node_uninit","__ZNK4rive21ArtboardComponentList4fileEv","__ZNK4rive8SMIInput13inputCoreTypeEv","_ma_decoder_config_init","_lua_type","__ZN4rive16ArtboardInstanceD1Ev","_rive_YGNodeClone","_rive_png_crc_read","__ZNK4rive12StateMachine5inputENSt3__112basic_stringIcNS1_11char_traitsIcEENS1_9allocatorIcEEEE","__ZNK4rive31ViewModelPropertyEnumCustomBase5cloneEv","_rive_jpeg_new_colormap","_rive_hb_unicode_script","__ZN4rive17ViewModelInstance8addValueEPNS_22ViewModelInstanceValueE","__ZN4rive22ViewModelInstanceValue15removeDependentEPNS_9DirtyableE","__ZN4rive29ViewModelInstanceValueRuntimeD0Ev","__ZN4rive18ContourMeasureIter6rewindEPKNS_7RawPathEf","__ZN4rive13TextInterface4fromEPNS_4CoreE","_ma_channel_map_to_string","_makeRenderPaint","__ZN4rive17StateMachineLayer12onAddedDirtyEPNS_11CoreContextE","_hydro_pwhash_verify","__ZN4rive20LayoutComponentStyle25maxWidthUnitsValueChangedEv","_rive_hb_face_create_or_fail","__ZN4rive16ScriptInputColorD2Ev","__ZN4rive21ScriptedDataConverterD1Ev","__ZN4rive4AABBC1ENS_4SpanINS_5Vec2DEEE","_rive_YGNodeStyleSetFlexBasis","__ZN6HBFontC1EP14rive_hb_font_tNSt3__113unordered_mapIjfNS2_4hashIjEENS2_8equal_toIjEENS2_9allocatorINS2_4pairIKjfEEEEEENS3_IjjS5_S7_NS8_INS9_ISA_jEEEEEENS2_6vectorI17rive_hb_feature_tNS8_ISI_EEEE","_ma_audio_buffer_unmap","__ZN4rive16ScriptingContext14sortNextModuleEPNS_13ModuleDetailsEPNSt3__16vectorIS2_NS3_9allocatorIS2_EEEES8_PNS3_13unordered_setIS2_NS3_4hashIS2_EENS3_8equal_toIS2_EES6_EE","__ZN4rive20LayoutComponentStyle15borderLeftUnitsEv","__ZN4rive4DashC1Ev","_lua_pcall","_rive_png_write_bKGD","__ZN4rive20LayoutComponentStyle15marginLeftUnitsEv","__ZNK4rive27DataConverterStringTrimBase5cloneEv","__ZN4rive18TransformComponent15rotationChangedEv","__ZN4rive13ScrollPhysics10accumulateENS_5Vec2DEf","__ZNK4rive13ExitStateBase5cloneEv","__ZN4rive8DataBind8collapseEb","__ZN6HBFontC1EP14rive_hb_font_t","__ZN4rive12RenderShaderD0Ev","_trimPathEffectSetMode","__ZNK4rive24DataConverterRounderBase5cloneEv","__ZN4rive12PathComposer6updateENS_13ComponentDirtE","_ma_channel_converter_process_pcm_frames","_VP8LPredictor11_C","__ZThn192_N4rive11GroupEffect16invalidateEffectEPNS_12PathProviderE","_rive_hb_ot_layout_get_baseline2","_freeString","_rive_jpeg_idct_8x16","_rive_png_set_text","__ZN4rive21ArtboardComponentList18hostTransformPointERKNS_5Vec2DEPNS_16ArtboardInstanceE","__ZNK4rive27TransitionBoolConditionBase5cloneEv","__ZN13ReadWriteRing12currentWriteEv","__ZN4rive26DataBindContextTargetValueD1Ev","_rive_png_set_read_fn","__ZN4rive14VertexListener30createRotationPropertyListenerEv","__ZN4rive14GrTriangulator10tessellateERKNS0_10VertexListERKNS0_10ComparatorE","__ZNK4rive16IKConstraintBase5cloneEv","__ZN4rive12DataBindPath12resolvedPathEv","__ZN4rive16PropertyRecorder18writePropertyValueENSt3__112basic_stringIcNS1_11char_traitsIcEENS1_9allocatorIcEEEERNS_18VectorBinaryWriterE","__ZN4rive20LayoutComponentStyle10widthUnitsEv","__ZN4rive12RawTextInputC1Ev","__ZThn440_N4rive21ArtboardComponentList10updateListEPNSt3__16vectorINS_3rcpINS_25ViewModelInstanceListItemEEENS1_9allocatorIS5_EEEE","__ZNK4rive20BlendStateTransition25exitTimeAnimationInstanceEPKNS_13StateInstanceE","__ZN4rive14ScriptedObject8setAssetENS_3rcpINS_9FileAssetEEE","_ma_hpf_config_init","__ZN4rive12FormulaToken6importERNS_11ImportStackE","_ma_dr_flac_read_pcm_frames_s16","__ZN4rive4Path9popVertexEv","_rive_YGNodeStyleSetAlignItems","__ZN4rive17TextModifierRange13clearRangeMapEv","__ZN4rive8SMIInput12valueChangedEv","__ZN18FlutterRenderImageD0Ev","__ZN4rive21BlendState1DViewModelD2Ev","__ZNK4rive14GrTriangulator9setBottomEPNS0_4EdgeEPNS0_6VertexEPNS0_8EdgeListEPS4_RKNS0_10ComparatorE","__ZNK4rive18TextStylePaintBase5cloneEv","__ZN4rive20NestedArtboardLayout14updateArtboardEPNS_25ViewModelInstanceArtboardE","__tr_flush_bits","_ma_peak2_get_heap_size","__ZN4rive23DataBindContextValueAnyC2EPNS_8DataBindE","_rive_hb_set_intersect","__ZN4rive18ClippingShapeStart14emptyClipCountEv","__ZN4rive20KeyFrameInterpolator6importERNS_11ImportStackE","_ma_node_get_heap_size","_audioReaderRead","__ZN4rive19RectanglesToContour7addRectERKNS_4AABBE","_yogaStyleSetGap","__ZN4rive24ViewModelInstanceTrigger8advancedEv","__ZThn168_N4rive18ScriptedPathEffect10scriptInitEP9lua_State","__ZN4rive17ScriptedViewModelC2EP9lua_StateNS_3rcpINS_9ViewModelEEENS3_INS_17ViewModelInstanceEEE","_lua_rawcheckstack","_ma_dr_wav_bytes_to_s16","__ZN4rive20LayoutComponentStyle17marginLeftChangedEv","__ZThn184_N4rive16ScrollConstraint16advanceComponentEfNS_12AdvanceFlagsE","_deleteRawTextInput","_audioSourceNumChannels","_ma_dr_wav_s32_to_s16","_ma_sound_set_fade_start_in_milliseconds","_ma_lpf2_reinit","_rive_hb_script_to_iso15924_tag","_ma_node_get_time","__ZN4rive12RawTextInput5eraseEv","__ZN4rive18CoreObjectListenerD1Ev","_rive_hb_draw_funcs_set_move_to_func","__ZN4rive15RiveRenderPaint6shaderENS_3rcpINS_12RenderShaderEEE","__ZN4rive37TransitionPropertyViewModelComparatorD1Ev","__ZN4rive11AudioEngine14soundCompletedENS_3rcpINS_10AudioSoundEEE","__ZN4rive12RawTextInput10cursorLeftENS_14CursorBoundaryEb","__ZN4rive27ScriptedTransitionConditionD2Ev","__ZN4rive14GrTriangulator20allocateMonotonePolyEPNS0_4EdgeENS0_4SideEi","_yogaStyleGetPosition","_luaL_checkstack","_yogaStyleGetAlignItems","__ZN4rive14GrTriangulator10buildEdgesEPNS0_10VertexListEiS2_RKNS0_10ComparatorE","_ma_node_set_output_bus_volume","_ma_sound_group_set_min_gain","_rive_hb_buffer_add_utf16","_rawTextInputGetMaxHeight","__ZN4rive15LayoutComponent15actualDirectionEv","__ZN4rive14NestedArtboardD2Ev","__Z15cg_image_decodePKhmP15PlatformCGImage","_ma_paged_audio_buffer_get_cursor_in_pcm_frames","__ZN4rive16rive_lua_pushRefEP9lua_Statei","__ZNK4rive20ListenerNumberChange23validateNestedInputTypeEPKNS_11NestedInputE","_ma_hishelf_node_uninit","__ZThn168_N4rive20DataConverterFormula7addDirtENS_13ComponentDirtEb","_ma_dr_mp3_open_file_and_read_pcm_frames_f32","__ZN4rive20NestedRemapAnimation19initializeAnimationEPNS_16ArtboardInstanceE","__ZNK4rive20BlendAnimation1DBase5cloneEv","__ZN4rive23ScriptedPropertyTriggerC2EP9lua_StateNS_3rcpINS_24ViewModelInstanceTriggerEEE","__ZN4rive20LayoutComponentStyle21cornerRadiusTRChangedEv","_rive_YGConfigSetPointScaleFactor","__ZN4rive14NestedArtboard11hitTestHostERKNS_5Vec2DEbPNS_16ArtboardInstanceE","_rive_jinit_1pass_quantizer","_luaL_checkinteger","_rive_hb_shape_plan_get_shaper","__ZN4rive17TextModifierGroup20shapeModifierChangedEv","_ma_paged_audio_buffer_read_pcm_frames","__ZNK4rive3gpu8Gradient8isOpaqueEv","_ma_dr_mp3_free","__ZN4rive12RenderBuffer3mapEv","_VP8LBuildHuffmanTable","__ZN4rive18ClippingShapeStart4drawEPNS_8RendererEb","_ma_sound_get_max_gain","_rive_hb_font_get_glyph_v_advance","_ma_sound_get_rolloff","__ZN4rive13KeyedPropertyD0Ev","__ZN4rive10BlendStateD2Ev","__ZN4rive21DataConverterToNumber13convertStringEPNS_15DataValueStringE","_lua_setmemcat","_rawTextTextPath","__ZN4rive21ArtboardComponentList16createArtboardAtEi","__ZN4rive17StateMachineLayer8addStateEPNS_10LayerStateE","__ZN4rive11ScriptAsset20registrationCompleteEi","__ZN4rive12TextValueRun12resetHitTestEv","__ZN4rive17FileAssetContents9signatureEv","_ma_node_get_output_bus_volume","__ZN4rive11ScriptAsset8bytecodeENS_4SpanIhEE","__ZN4rive17ScriptedPaintDataC1EPKNS_10ShapePaintE","_lua_tolstringatom","_stateMachineInstanceDone","_rive_png_get_x_pixels_per_inch","__ZN4rive23StateMachineFireTrigger6importERNS_11ImportStackE","__ZThn144_N4rive10SolidColor7applyToEPNS_11RenderPaintEf","_ma_dr_wav_bytes_to_s64","__ZN4rive12BinaryWriter5writeEj","__ZN4rive10AudioSound6volumeEf","__ZN4rive9TextStyle12addVariationEPNS_13TextStyleAxisE","_rive_YGNodeLayoutGetHadOverflow","__ZN4rive16ScriptInputColorD1Ev","__ZN4rive19ScriptInputArtboard17initScriptedValueEv","_ma_dr_wav_s24_to_s16","__ZN4rive13KeyedProperty12onAddedCleanEPNS_11CoreContextE","__ZNK11rive_YGNode24isLeadingPositionDefinedE20rive_YGFlexDirection","_fireTrigger","_hydro_hash_final","__ZN4rive15LinearAnimation12onAddedDirtyEPNS_11CoreContextE","__ZN19FlutterVertexBuffer6updateEv","__ZN4rive4Fill17buildDependenciesEv","__ZN4rive20LayoutComponentStyle22alignItemsValueChangedEv","_ma_audio_buffer_ref_seek_to_pcm_frame","_deleteViewModelInstanceValue","__ZN4rive16PropertyRecorder15writePropertiesEPKNS_8ArtboardE","_PrepareMapToPalette","__ZN4rive17ViewModelInstance12removeParentEPS0_","__ZN4rive24ViewModelInstanceRuntimeD2Ev","_rive_hb_font_funcs_set_glyph_h_advances_func","_rive_png_get_filter_type","__ZN4rive12BinaryReader10readUint16Ev","__ZN4rive16PropertyRecorder16writePropertyKeyEjRNS_18VectorBinaryWriterE","_WebPYuv444ToRgb_C","__Z11ma_wcscpy_sPwmPKw","__ZNK4rive15ScriptAssetBase5cloneEv","__ZN4rive7EllipseC2Ev","_luaopen_math","__ZNK4rive25ScriptedDataConverterBase5cloneEv","_ma_data_source_node_uninit","__ZNK4rive4File23createViewModelInstanceENSt3__112basic_stringIcNS1_11char_traitsIcEENS1_9allocatorIcEEEES7_","__ZN4rive19ScriptAssetImporterC2EPNS_11ScriptAssetENS_3rcpINS_15FileAssetLoaderEEEPNS_7FactoryEPNSt3__16vectorINS_14InBandByteCodeENS8_9allocatorISA_EEEE","_yogaNodeClearBaselineFunc","__Z14ma_vec3f_cross8ma_vec3fS_","__ZN4rive19ConditionComparison15compareBooleansEbb","_animationInstanceSetTime","__ZN4rive3gpu13RenderContext29incrementCoverageBufferPrefixEPb","_ma_channel_converter_init","__ZN4rive14NSlicerDetails4fromEPNS_9ComponentE","__ZN4rive12StrokeEffectD1Ev","_dashPathEffectGetOffsetIsPercentage","__ZN4rive12BinaryWriter11writeDoubleEd","__ZNK4rive11AudioSource15bufferedSamplesEv","__ZThn536_N4rive20NestedArtboardLayout16syncStyleChangesEv","_yogaStyleGetMaxDimension","__ZN4rive15LayoutComponentC1Ev","__ZN4rive32ViewModelInstanceSymbolListIndex10applyValueEPNS_16DataValueIntegerE","__ZN4rive11AudioSourceC2ENS_11SimpleArrayIhEE","__Z13ma_mp3_uninitP6ma_mp3PK23ma_allocation_callbacks","__ZN6HBFont6DecodeEN4rive4SpanIKhEE","_ma_loshelf2_get_latency","__ZN4rive17ViewModelInstance16propertyFromPathEPNSt3__16vectorIjNS1_9allocatorIjEEEEm","__Z14ma_flac_uninitP7ma_flacPK23ma_allocation_callbacks","__ZNK4rive14GrTriangulator16emitMonotonePolyEPKNS0_12MonotonePolyEtbbNS_3gpu12WindingFacesEPNS4_21WriteOnlyMappedMemoryINS4_14TriangleVertexEEE","_rive_png_set_check_for_invalid_index","_SBCodepointGetGeneralCategory","__ZN4rive21ViewModelInstanceList8advancedEv","_ma_node_get_state_by_time_range","_stateMachineInstancePointerExit","_ma_job_queue_post","_ma_pcm_rb_commit_read","__ZThn16_N4rive27ScriptedTransitionConditionD1Ev","_rive_jpeg_idct_9x9","_deflateParams","_rive_png_init_io","__ZN4rive5Shape15addToRenderPathEPNS_10RenderPathERKNS_5Mat2DE","__ZN4rive22DataConverterStringPad13lengthChangedEv","_png_do_expand_palette_rgb8_neon","_yogaStyleGetMargin","__ZN4rive27DataConverterOperationValue14reverseConvertEPNS_9DataValueEPNS_8DataBindE","_rive_hb_set_is_equal","_ma_apply_volume_factor_pcm_frames_u8","_makeFlutterRenderer","_VP8LPredictor7_C","__ZN4rive12BinaryWriterD2Ev","__ZN4rive16ScrollConstraint14addLayoutChildEPNS_18LayoutNodeProviderE","__ZNK4rive30CubicInterpolatorComponentBase5cloneEv","__ZN4rive21ScriptedDataConverter6importERNS_11ImportStackE","__ZN4rive4AABB8expandToERS0_RKNS_5Vec2DE","_riveFileAssetCoreType","_lua_isuserdata","__ZN4rive25DataConverterInterpolator4copyERKNS_29DataConverterInterpolatorBaseE","__ZN4rive8Artboard15updateDataBindsEb","_rive_png_get_y_pixels_per_meter","_rive_YGNodeStyleGetHeight","__ZN13ReadWriteRingC2Ev","__ZN4rive12BinaryWriterD1Ev","__ZN4rive3gpu22RenderContextMetalImplC2EPU19objcproto9MTLDevice11objc_objectRKNS1_14ContextOptionsE","__ZN4rive14CursorPosition15fromTranslationENS_5Vec2DERKNS_15FullyShapedTextE","__ZN4rive3gpu17IntersectionBoard12addRectangleEDv4_is","__ZN4rive7NSlicerC2Ev","__ZN4rive20StateMachineImporter17addScriptedObjectEPNS_14ScriptedObjectE","__ZN4rive4Text12widthChangedEv","__ZN4rive9SliceMesh4drawEPNS_8RendererEPKNS_11RenderImageENS_12ImageSamplerENS_9BlendModeEf","_rive_png_get_y_offset_inches_fixed","_rive_hb_draw_cubic_to","_rive_hb_buffer_set_content_type","__ZN4rive14colorWithAlphaEjj","_deleteInput","__ZNK6HBFont8featuresEv","__ZN4rive20LayoutComponentStyle16marginRightUnitsEv","__ZN4rive8SMIInputC1EPKNS_17StateMachineInputEPNS_20StateMachineInstanceE","__ZN4rive25DataConverterInterpolatorD1Ev","_vmiRuntimeName","_rive_hb_font_make_immutable","__ZN4rive10ImageAssetD1Ev","__ZN4rive11OrderedLine17buildEllipsisRunsERNSt3__16vectorIPKNS_8GlyphRunENS1_9allocatorIS5_EEEERKNS_9ParagraphERKNS_9GlyphLineEfbPS3_","__ZN4rive9TextInput7hitTestEPNS_7HitInfoERKNS_5Mat2DE","__ZN4rive8Artboard13propagateSizeEv","__ZN15WrappedDataBindD2Ev","_ma_hishelf2_process_pcm_frames","__ZN4rive18CoreObjectListener16createPropertiesEv","__ZN4rive14ScriptedObject14setNumberInputENSt3__112basic_stringIcNS1_11char_traitsIcEENS1_9allocatorIcEEEEf","__ZN4rive29ViewModelInstanceColorRuntime5valueEi","__ZN4rive13DataEnumValue6importERNS_11ImportStackE","__ZThn536_N4rive20NestedArtboardLayout19markLayoutNodeDirtyEb","_ma_event_signal","_artboardUpdateDataBinds","_ma_notch2_reinit","_ma_rb_init","_ma_lpf_get_latency","_stateMachineInstancePointerUp","__ZThn200_N4rive14ParametricPath13measureLayoutEfNS_17LayoutMeasureModeEfS1_","__ZNK4rive21TextVariationModifier6modifyEPNS_4FontERNSt3__113unordered_mapIjfNS3_4hashIjEENS3_8equal_toIjEENS3_9allocatorINS3_4pairIKjfEEEEEEff","__ZN4rive13ClippingShape6updateENS_13ComponentDirtE","__ZThn424_N4rive14NestedArtboard20referencedArtboardIdEv","__ZN4rive11DataContextC1ENS_3rcpINS_17ViewModelInstanceEEE","_lua_pushinteger","_lua_singlestep","_rive_hb_buffer_set_cluster_level","_rive_jpeg_idct_4x8","_rive_png_set_user_limits","_drawImage","__ZNK4rive22ScriptedListenerAction19cloneScriptedObjectEPNS_17DataBindContainerE","__ZN4rive19CubicMirroredVertex9computeInEv","_inflateEnd","__ZN4rive4Path7onDirtyENS_13ComponentDirtE","__ZNK13rive_YGConfig10getContextEv","_ma_dr_flac_close","__ZN4rive10ShapePaint12onAddedCleanEPNS_11CoreContextE","_crc32_combine64","__ZNK11rive_YGNode18getLeadingPositionE20rive_YGFlexDirectionf","_deflateGetDictionary","__ZN4rive3gpu17RenderTargetMetalC2EPU19objcproto9MTLDevice11objc_object14MTLPixelFormatjjRKNS0_16PlatformFeaturesE","__ZN4rive21ViewModelPropertyEnum5valueENSt3__112basic_stringIcNS1_11char_traitsIcEENS1_9allocatorIcEEEE","__ZN4rive35DataBindContextValueSymbolListIndexC2EPNS_8DataBindE","__ZN4rive16ArtboardInstance10getTextRunERKNSt3__112basic_stringIcNS1_11char_traitsIcEENS1_9allocatorIcEEEES9_","__ZN4rive14CoreStringType11deserializeERNS_12BinaryReaderE","_lua_newuserdatadtor","_ma_sound_group_get_rolloff","_riveLock","__ZN4rive3gpu23RenderContextHelperImpl27unmapImageDrawUniformBufferEm","__ZN4rive12IKConstraint6solve2EPNS0_13BoneChainLinkES2_RKNS_5Vec2DE","__ZN4rive10colorAlphaEj","_rive_YGNodeSetBaselineFunc","_ma_hpf_uninit","__ZNK4rive10ShapePaint7featherEv","__ZN4rive14NSlicerHelpers7uvStopsERKNSt3__16vectorIPNS_4AxisENS1_9allocatorIS4_EEEEf","__ZNK4rive10ImageAsset13fileExtensionEv","__ZN4rive8DataBind12onAddedDirtyEPNS_11CoreContextE","__ZNK4rive22ScriptInputTriggerBase5cloneEv","_vmiRuntimeGetViewModelProperty","__ZN4rive21ArtboardComponentList21bindViewModelInstanceENS_3rcpINS_17ViewModelInstanceEEENS1_INS_11DataContextEEE","__ZN4rive3gpu13RenderContext12LogicalFlush11pushContourEjNS_5Vec2DEbbj","__ZN4rive7RawPath7addOvalERKNS_4AABBENS_13PathDirectionE","__ZN4rive11CubicVertex9renderOutEv","__ZN4rive8Artboard16addDirtyDataBindEPNS_8DataBindE","__ZNK4rive13KeyedProperty17closestFrameIndexEfi","__ZN4rive23ScriptedPropertyBoolean9pushValueEv","__ZN4rive31DataConverterOperationViewModel12resolveValueEPNS_8DataBindE","_rive_png_zalloc","_ma_dr_wav_read_pcm_frames_s32","_stateMachineInstanceDragEnd","__ZN4rive10PointsPath6updateENS_13ComponentDirtE","_rive_jdiv_round_up","__ZNK4rive22ViewModelComponentBase5cloneEv","__ZN4rive14NestedArtboard16nestedAnimationsEv","_ma_sound_group_get_pan_mode","__Z17ma_pcm_f32_to_f32PvPKvy14ma_dither_mode","__ZN13ReadWriteRing11currentReadEv","_hydro_kx_xx_3","__ZN4rive24DataConverterRangeMapper12interpolatorEPNS_20KeyFrameInterpolatorE","_ma_data_source_set_next","_ma_lpf2_config_init","_rive_png_realloc_array","__ZN4rive11CubicVertex8outPointERKNS_5Vec2DE","__ZN4rive15LayoutComponent16directionChangedEv","_lua_typename","__ZN4rive13DataConverter15bindFromContextEPNS_11DataContextEPNS_8DataBindE","__Z34generateViewModelPropertyDataArrayRNSt3__16vectorIN4rive12PropertyDataENS_9allocatorIS2_EEEE","__ZN4rive16ScrollConstraint15indexAtPositionENS_5Vec2DE","_rive_hb_font_get_synthetic_bold","_rive_png_set_filter_heuristics","_ma_sound_set_volume","__ZN18FlutterRenderImageD2Ev","_setViewModelInstanceNumberValue","__ZN4rive16PropertyRecorder14addPropertyKeyEPNS_14CoreObjectDataEi","_inflateCopy","__ZN4rive17TextModifierRange17modifyFromChangedEv","__ZN4rive16ScriptInputColor20propertyValueChangedEv","_lua_gettop","__ZN4rive5Shape8addFlagsENS_9PathFlagsE","__ZN4rive24ViewModelInstanceBoolean20propertyValueChangedEv","__ZN4rive20LayoutComponentStyle20overflowValueChangedEv","__ZeqRK12rive_YGStyleS1_","_ma_spatializer_listener_get_velocity","__ZN4rive20NestedArtboardLayout12onAddedCleanEPNS_11CoreContextE","_rive_YGNodeGetContext","_ma_pcm_s32_to_s24","__ZN4rive9ViewModel11addPropertyEPNS_17ViewModelPropertyE","_viewModelRuntimeName","__ZN4rive9TextStyle6importERNS_11ImportStackE","_lua_setsafeenv","__ZN4rive4Dash13lengthChangedEv","__ZN4rive27ScriptedTransitionConditionD1Ev","__ZNK4rive13TextStyleBase5cloneEv","__ZN4rive17CubicInterpolator12onAddedDirtyEPNS_11CoreContextE","__ZN4rive4Text18originValueChangedEv","__ZN4rive13DataConverter4copyERKS0_","__ZN4rive18NestedStateMachineD0Ev","__ZN4rive17ScriptInputNumber12onAddedCleanEPNS_11CoreContextE","_ma_interleave_pcm_frames","_dashPathAddDash","_ma_biquad_process_pcm_frames","__ZN4rive16ScriptInputColorD0Ev","__ZN4rive3gpu17RenderTargetMetal16setTargetTextureEPU21objcproto10MTLTexture11objc_object","_rive_png_convert_to_rfc1123_buffer","__ZNK4rive12TextValueRun13textComponentEv","_ma_data_source_get_data_format","_ma_hpf2_get_latency","__ZN4rive21ViewModelInstanceEnum5valueEj","__ZN4rive22ViewModelInstanceValue10hasChangedEv","__ZN4rive11GroupEffect15addTargetEffectEPNS_12TargetEffectE","__ZN4rive14TextStylePaint11pathBuilderEv","__ZN4rive35DataBindContextValueSymbolListIndex5applyEPNS_4CoreEjb","_ma_pcm_rb_get_channels","__ZN4rive8Artboard6updateENS_13ComponentDirtE","__ZN4rive12TextValueRun11hitTestHiFiERKNS_5Vec2DEf","_deleteFont","_WebPGetWorkerInterface","_rive_png_set_sRGB","__ZN4rive12RiveRenderer12clipPathImplEPKNS_14RiveRenderPathE","_ma_async_notification_event_uninit","__ZN4rive20TextValueRunProperty10writeValueEv","_dashPathEffectGetOffset","_artboardSyncStyleChanges","_dashPathClearDashes","__ZN4rive28ScriptInputViewModelProperty12onAddedCleanEPNS_11CoreContextE","__ZNK4rive24ViewModelInstanceRuntime17propertyViewModelERKNSt3__112basic_stringIcNS1_11char_traitsIcEENS1_9allocatorIcEEEE","_yogaNodeHasError","_ma_channel_map_init_standard","_ma_copy_and_apply_volume_and_clip_samples_s32","__ZN4rive20BlendState1DInstance14animationIndexEf","__Z15extractPolygonsRNSt3__16vectorIN4rive12ContourPointENS_9allocatorIS2_EEEERNS0_ImNS3_ImEEEERNS_13unordered_mapINS1_5Vec2DESB_NS_4hashISB_EENS_8equal_toISB_EENS3_INS_4pairIKSB_SB_EEEEEESL_","_rive_png_check_keyword","_rive_png_read_filter_row_avg4_neon","__ZNK4rive22ScriptedPathEffectBase5cloneEv","_rive_hb_font_set_variation","_initFactoryCallbacks","_ma_noise_init","__ZN4rive20LayoutComponentStyle17flexShrinkChangedEv","_ma_context_config_init","__Z25rive_YGLayoutNodeInternalP11rive_YGNodeff16rive_YGDirection18rive_YGMeasureModeS2_ffbN13rive_facebook4yoga16LayoutPassReasonEP13rive_YGConfigRNS4_10LayoutDataEPvjj","__tr_init","_rive_png_get_copyright","_rive_YGNodeStyleSetMinWidthPercent","_ma_spatializer_listener_set_enabled","__ZNK4rive10StyledText5emptyEv","__ZN4rive25ScriptedPropertyViewModel9pushValueEv","__ZN4rive13ScriptedPaintC1EPNS_7FactoryERKS0_","__ZN4rive23ViewModelInstanceNumber10applyValueEPNS_15DataValueNumberE","__ZN4rive20LayoutComponentStyle18gapVerticalChangedEv","__ZN4rive21BlendState1DViewModelD1Ev","__ZN11rive_YGNode18setLayoutDimensionEfi","__ZN4rive16ScrollConstraint9constrainEPNS_18TransformComponentE","__ZN4rive17DataBindContainer13sortDataBindsEv","_ma_data_source_uninit","__ZNK4rive23LinearAnimationInstance5speedEv","_ma_sound_get_listener_index","__ZN4rive14InBandByteCodeC2EPNS_11ScriptAssetERNS_11SimpleArrayIhEE","_VP8LConvertBGRAToRGB_C","__ZN4rive28VertexPropertyListenerSingleC1EPNS_4CoreEPNS_14VertexListenerEPNS_22ViewModelInstanceValueEtf","__ZN4rive21ArtboardComponentList18syncLayoutChildrenEv","__ZNK4rive19TransformConstraint15targetTransformEv","__ZN4rive17ScriptInputString12onAddedCleanEPNS_11CoreContextE","__ZNK4rive23StateMachineFireTrigger7performEPNS_20StateMachineInstanceE","_makePathMeasure","__ZN4rive16PropertyRecorder5applyEPNS_8ArtboardE","__ZN4rive5Image13measureLayoutEfNS_17LayoutMeasureModeEfS1_","_ma_spatializer_set_min_gain","_createVMIRuntimeFromIndex","_ma_engine_read_pcm_frames","__ZN4rive18HitTestCommandPath10renderPathEv","__ZThn400_N4rive16ArtboardInstanceD1Ev","__ZN4rive4Fill7applyToEPNS_11RenderPaintEf","__ZN4rive14ShapePaintPath6rewindEv","__ZN4rive11NSlicedNode12widthChangedEv","__ZN4rive15LayoutComponent12onAddedDirtyEPNS_11CoreContextE","_lua_xmove","_rive_YGNodeStyleSetPositionPercent","__ZN4rive11RenderImageD0Ev","_rive_hb_font_set_synthetic_slant","__ZN4rive22DataConverterGroupItemD2Ev","__ZNK4rive8Artboard6volumeEv","_ma_device_config_init","__ZN4rive13ScrollPhysics6importERNS_11ImportStackE","_ma_apply_volume_factor_s32","_rive_hb_ot_layout_table_get_feature_tags","__ZN4rive3gpu23RenderContextHelperImpl19unmapPaintAuxBufferEm","_ma_sound_group_init_ex","_rive_png_get_eXIf_1","__ZN4rive20ScriptReffedArtboardD2Ev","__ZN4rive14ContourMeasureC1EONSt3__16vectorINS0_7SegmentENS1_9allocatorIS3_EEEEONS2_INS_5Vec2DENS4_IS8_EEEEfb","__ZN4rive11ScriptingVM4initEP9lua_StatePNS_16ScriptingContextE","__ZN4rive27ViewModelInstanceAssetImage20propertyValueChangedEv","_inflateReset2","__Z22ma_vfs_or_default_openPvPKcjPS_","_rive_YGNodeStyleSetDisplay","_makeIndexRenderBuffer","__ZN4rive15DataBindContext19decodeSourcePathIdsENS_4SpanIKhEE","_ma_linear_resampler_process_pcm_frames","_rive_hb_language_from_string","_ma_sound_group_set_direction","__ZN4rive28StateMachineListenerImporterC2EPNS_20StateMachineListenerE","__ZN4rive18NestedStateMachine11dataContextENS_3rcpINS_11DataContextEEE","__ZN4rive15LayoutComponentC2Ev","__ZN4rive18CoreObjectListener5remapENS_3rcpINS_17ViewModelInstanceEEE","__ZN4rive22TextFollowPathModifier5resetEPKNS_5Mat2DE","__ZThn248_N4rive21ScriptedDataConverter16advanceComponentEfNS_12AdvanceFlagsE","_rawTextInputUpdate","_rive_png_convert_from_struct_tm","__ZN4rive16ViewModelRuntime19buildPropertiesDataERNSt3__16vectorIPNS_17ViewModelPropertyENS1_9allocatorIS4_EEEE","__ZN4rive20LayoutComponentStyle12onAddedDirtyEPNS_11CoreContextE","_ma_data_source_set_current","__ZN4rive4TextD0Ev","__ZN4rive18NestedStateMachine5inputENSt3__112basic_stringIcNS1_11char_traitsIcEENS1_9allocatorIcEEEE","_stateMachineInstanceHitTest","__ZN4rive20LayoutComponentStyle15paddingTopUnitsEv","__ZN4rive8Artboard11frameOriginEb","_ma_dr_mp3_open_file_and_read_pcm_frames_s16","__ZThn56_N4rive20StateMachineInstance6notifyERKNSt3__16vectorINS_11EventReportENS1_9allocatorIS3_EEEEPNS_14NestedArtboardE","_rive_hb_shape_plan_create2","__ZNK4rive16ScriptedDrawable5cloneEv","_setVMINumberRuntimeValue","_WebPRescalerDspInit","__ZN4rive15LayoutComponent31heightIntrinsicallySizeOverrideEb","_artboardInternalDataContext","__ZN4rive14GrTriangulator11CountPointsEPNS0_4PolyENS_8FillRuleE","__ZNK4rive24ViewModelInstanceRuntime23viewModelInstanceAtPathERKNSt3__112basic_stringIcNS1_11char_traitsIcEENS1_9allocatorIcEEEE","_rive_hb_draw_funcs_is_immutable","__ZN4rive31ViewModelInstanceTriggerRuntime7triggerEv","_rive_jpeg_open_backing_store","_ma_sound_config_init_2","_rive_hb_face_make_immutable","_hb_coretext_font_create","__ZN4rive11AudioEngineC2EP9ma_engineP10ma_context","__ZNK4rive20ListenerNumberChange17validateInputTypeEPKNS_17StateMachineInputE","_artboardLayoutBounds","_ma_audio_buffer_init","_rive_jinit_color_deconverter","_ma_node_get_input_bus_count","_png_write_cLLI_fixed","_rive_YGNodeStyleSetMinWidth","__ZN4rive18NestedStateMachine14addNestedInputEPNS_11NestedInputE","_rive_YGNodeFreeRecursive","_rive_hb_buffer_get_user_data","__ZN4rive12IKConstraint22invertDirectionChangedEv","__ZN4rive17ViewModelInstance16rebindDependentsEv","_deleteShapeResult","_png_set_cICP","__ZN4rive9Skinnable4skinEPNS_4SkinE","_ma_loshelf_node_uninit","__ZN4rive3UTF20CountCodePointLengthENS_4SpanIKjEE","_rive_png_set_read_status_fn","__ZN4rive3gpu23RenderContextHelperImpl23unmapFlushUniformBufferEm","_loadRiveFile","_ma_lpf_node_uninit","__ZThn400_N4rive21ArtboardComponentList5resetEv","_ma_clip_samples_s24","__ZN4rive10SMITrigger4fireEv","_rive_jround_up","_rawTextInputGetText","__ZN4rive15LayoutComponent13heightChangedEv","_rive_hb_buffer_get_length","__ZN4rive16ArtboardInstance14stateMachineAtEm","__ZN4rive10LayerState12onAddedDirtyEPNS_11CoreContextE","__ZNK4rive23ListenerViewModelChange7performEPNS_20StateMachineInstanceENS_5Vec2DES3_i","_rive_hb_ot_var_has_data","_ma_notch2_get_heap_size","__ZN4rive18DataConverterGroup7convertEPNS_9DataValueEPNS_8DataBindE","__ZN11rive_YGNode14isNodeFlexibleEv","__ZThn8_N4rive23LinearAnimationInstanceD1Ev","_rive_png_get_gAMA_fixed","__ZN4rive22ScriptedPropertyString9pushValueEv","__ZN4rive28ViewModelInstanceListRuntime4swapEjj","__ZN4rive11ElasticEaseC2Eff","_ma_engine_get_time_in_pcm_frames","__ZThn200_N4rive10AudioEvent8setAssetENS_3rcpINS_9FileAssetEEE","__ZN4rive27DataBindContextValueBooleanC1EPNS_8DataBindE","__ZN4rive17BackboardImporterC1EPNS_9BackboardE","__ZN4rive20LayoutComponentStyle26minHeightUnitsValueChangedEv","__ZN4rive14ScriptedObject16setArtboardInputENSt3__112basic_stringIcNS1_11char_traitsIcEENS1_9allocatorIcEEEEPNS_8ArtboardE","__Z18rive_YGFloatsEqualff","_ma_decoder_init_file","__ZNK4rive14GrTriangulator8emitPolyEPKNS0_4PolyEtbbNS_3gpu12WindingFacesEPNS4_21WriteOnlyMappedMemoryINS4_14TriangleVertexEEE","__ZN4rive10AudioAssetC2Ev","__ZThn464_N4rive16ScriptedDrawable13hitComponentsEPNS_20StateMachineInstanceE","_rive_hb_face_collect_variation_unicodes","__ZN4rive16ScrollConstraint17setScrollPercentYEf","_destroyRiveRenderer","_rive_png_image_free","__ZN4rive17ScriptInputNumberD0Ev","_riveDataBindFlags","__ZN4rive24DataBindContextValueListC2EPNS_8DataBindE","_dashPathEffectSetOffsetIsPercentage","__ZN4rive7SMIBool5valueEb","__ZN4rive22TextFollowPathModifier14transformGlyphERKNS_19TransformComponentsERKNS_17TransformGlyphArgE","__ZN6HBFontC2EP14rive_hb_font_t","__ZNK4rive22TextInputSelectionBase5cloneEv","_rive_hb_unicode_compose","_artboardBounds","__ZN4rive5Image12assetUpdatedEv","__ZN4rive12NestedNumber10applyValueEv","_deleteVMIRuntime","__ZNK4rive25TextVariationModifierBase5cloneEv","_stateMachineInstancePointerMove","_ma_dr_flac_open_file_w","_ma_dr_wav_read_pcm_frames_le","_rive_hb_font_funcs_set_draw_glyph_func","__ZNK4rive4Path9isFlaggedENS_9PathFlagsE","__ZN4rive21ViewModelPropertyEnum5valueEj","__ZN4rive22ScriptedPropertyStringC2EP9lua_StateNS_3rcpINS_23ViewModelInstanceStringEEE","_rive_hb_face_reference_blob","__ZN4rive7Polygon13pointsChangedEv","_rive_png_write_sig","__ZN4rive4Dash12onAddedCleanEPNS_11CoreContextE","__ZN4rive17ViewModelInstance13propertyValueENS_10SymbolTypeE","_wasmStateMachineInstanceBatchAdvanceAndRender","__ZNK4rive12BinaryReader8positionEv","_rive_hb_blob_get_length","__ZN4rive12RawTextInput6cursorENS_6CursorE","__ZN4rive26UnpackColorToRGBA32FPremulEjPf","__ZN13rive_facebook4yoga5Event9subscribeEONSt3__18functionIFvRK11rive_YGNodeNS1_4TypeENS1_4DataEEEE","_ma_engine_listener_get_direction","__ZNK4rive8Artboard12stateMachineERKNSt3__112basic_stringIcNS1_11char_traitsIcEENS1_9allocatorIcEEEE","__ZThn8_N4rive20StateMachineInstanceD1Ev","_ma_data_source_get_length_in_pcm_frames","_ma_dr_wav_read_pcm_frames","__ZN4rive20LayoutComponentStyle13minWidthUnitsEv","__ZNK4rive22ScriptedListenerAction7performEPNS_20StateMachineInstanceENS_5Vec2DES3_i","__ZNK4rive24DataConverterTriggerBase5cloneEv","_lua_rawgeti","_rive_png_get_io_state","__ZN4rive14NestedArtboardC2Ev","__ZN6HBFontC2EP14rive_hb_font_tNSt3__113unordered_mapIjfNS2_4hashIjEENS2_8equal_toIjEENS2_9allocatorINS2_4pairIKjfEEEEEENS3_IjjS5_S7_NS8_INS9_ISA_jEEEEEENS2_6vectorI17rive_hb_feature_tNS8_ISI_EEEE","_ma_rb_get_subbuffer_offset","__ZN4rive11CubicVertex6deformERKNS_5Mat2DEPKf","_ma_spatializer_listener_uninit","_setViewModelInstanceAssetValue","__ZN4rive21KeyedPropertyImporter14readNullObjectEv","__ZN4rive4Text14markShapeDirtyEv","_getVMINumberRuntimeValue","_rive_png_get_int_32","_ma_device_handle_backend_data_callback","_rive_png_read_filter_row_avg3_neon","__ZN4rive10MeshVertex12onAddedDirtyEPNS_11CoreContextE","_yogaStyleGetDirection","__ZN4rive3gpu8PathDraw11releaseRefsEv","__ZN5skgpu17RectanizerSkyline7addRectEiiPsS1_","__ZN4rive7RawText8overflowENS_12TextOverflowE","_ma_sound_get_length_in_seconds","__ZN4rive26DataBindContextValueStringC1EPNS_8DataBindE","_rive_png_fixed","__ZN4rive16ClippingShapeEnd4drawEPNS_8RendererEb","__ZN4rive16PropertyRecorder18writePropertyValueEiRNS_18VectorBinaryWriterE","_lua_pushnil","_engineInitLevelMonitor","_ma_fence_acquire","__ZN4rive16ScrollConstraint15positionAtIndexEf","_ma_spatializer_get_max_distance","_ma_noise_config_init","__ZN4rive23OptionalScriptedMethods20verifyImplementationEPNS_14ScriptedObjectEP9lua_State","_rive_png_set_gray_to_rgb","_ma_hpf1_process_pcm_frames","__ZN4rive12DataBindPath6importERNS_11ImportStackE","__ZNK4rive19NSlicerTileModeBase5cloneEv","_ma_engine_get_time","__ZN4rive22AnimationStateInstanceC1EPKNS_14AnimationStateEPNS_16ArtboardInstanceE","_ma_pcm_s16_to_s32","__ZN4rive3gpu13RenderContext12logicalFlushEv","__ZNK4rive20ListenerNumberChange7performEPNS_20StateMachineInstanceENS_5Vec2DES3_i","_rive_hb_blob_copy_writable_or_fail","__ZN4rive21DataConverterToString13convertNumberEPNS_15DataValueNumberE","__ZN4rive27DataConverterOperationValue21operationValueChangedEv","_artboardWorldBounds","__ZN4rive25ViewModelInstanceArtboard17viewModelInstanceENS_3rcpINS_17ViewModelInstanceEEE","_ma_device_get_info","_VP8LColorCacheCopy","__ZN4rive11DataContextC2ENS_3rcpINS_17ViewModelInstanceEEE","_makeAudioReader","_rive_hb_aat_layout_feature_type_get_name_id","__ZN4rive10ShapePaint19invalidateRenderingEv","__ZNK4rive8StarBase5cloneEv","_ma_sound_set_doppler_factor","__ZN13ReadWriteRing9nextWriteEv","__ZN4rive22DataConverterGroupItemD0Ev","_rive_hb_blob_destroy","__ZNK4rive25TextInputSelectedTextBase5cloneEv","__ZNK4rive8Artboard13isTranslucentEPKNS_23LinearAnimationInstanceE","_rive_png_write_iCCP","_ma_data_converter_get_required_input_frame_count","__ZNK4rive9AxisXBase5cloneEv","_rive_png_get_user_height_max","_ma_clip_samples_u8","__ZNK4rive24ViewModelInstanceRuntime12propertyEnumERKNSt3__112basic_stringIcNS1_11char_traitsIcEENS1_9allocatorIcEEEE","_rawTextInputSetSeparateSelectionText","__ZN4rive8Joystick6updateENS_13ComponentDirtE","_lua_status","_yogaNodeGetLayout","_VP8LDspInit","__ZN4rive21ArtboardComponentListC2Ev","__ZN4rive18ContainerComponent8addChildEPNS_9ComponentE","__ZN4rive22DataBindPathReferencer18importDataBindPathERNS_11ImportStackE","__ZN4rive11OrderedLineC1ERKNS_9ParagraphERKNS_9GlyphLineEfbbPNS_8GlyphRunEf","__ZN4rive29ViewModelInstanceValueRuntimeC2EPNS_22ViewModelInstanceValueE","_rive_hb_font_set_funcs","__ZN4rive8DataBind4bindEv","__ZN4rive16PropertyRecorder18writePropertyValueEjRNS_18VectorBinaryWriterE","__ZN4rive11NSlicedNode22markPathDirtyRecursiveEb","__ZN4rive8DataBind14isMainToSourceEv","__ZThn312_N4rive14TextStylePaint11pathBuilderEv","__ZThn192_N4rive16ScrollConstraint14addLayoutChildEPNS_18LayoutNodeProviderE","_ma_dr_mp3_version","__ZN4rive8GlyphItrppEv","__ZThn160_N4rive11GroupEffect17invalidateEffectsEPNS_12StrokeEffectE","_ma_spatializer_listener_get_position","__ZN4rive12RiveRenderer11ClipElementC2ERKNS_5Mat2DEPKNS_14RiveRenderPathENS_8FillRuleE","__ZN4rive8DashPath13offsetChangedEv","__ZNK4rive14ContourMeasure7Segment7extractEPNS_7RawPathEPKNS_5Vec2DE","__Z22ma_mp3_get_data_formatP6ma_mp3P9ma_formatPjS3_Phm","_ma_decoder_get_cursor_in_pcm_frames","_ma_dr_flac_open_and_read_pcm_frames_s32","_ma_peak_node_config_init","_rive_png_read_chunk_header","_luaL_checknumber","_ma_peak_node_reinit","_WebPCopyPlane","__ZN4rive18CoreObjectListener16deletePropertiesEv","__ZN19FlutterVertexBufferD1Ev","__ZNK4rive28ViewModelPropertyBooleanBase5cloneEv","_rive_YGNodeStyleGetJustifyContent","__Z31ma_wav_get_length_in_pcm_framesP6ma_wavPy","_yogaStyleSetDimension","__ZN13rive_YGConfig12removeErrataE13rive_YGErrata","__Z31ma_mp3_get_length_in_pcm_framesP6ma_mp3Py","__ZN4rive11CubicVertex8yChangedEv","__ZN4rive22DataBindPathReferencer16copyDataBindPathEPNS_12DataBindPathE","__ZN4rive19ScriptInputArtboardD2Ev","_rawTextRender","__ZN4rive19ScriptedDataContextC1EP9lua_StateNS_3rcpINS_11DataContextEEE","_rive_YGNodeHasMeasureFunc","_lua_rawsetfield","__ZN4rive16BinaryDataReader10readUint32Ev","__ZN4rive14quad_subdivideEPKNS_5Vec2DEfPS0_","_yogaNodeClearMeasureFunc","__ZN4rive20FollowPathConstraint12onAddedCleanEPNS_11CoreContextE","__ZNK4rive24ViewModelInstanceRuntime15propertyTriggerERKNSt3__112basic_stringIcNS1_11char_traitsIcEENS1_9allocatorIcEEEE","_rive_hb_ot_layout_lookups_substitute_closure","__ZN4rive12RenderBuffer5unmapEv","_componentGetRotation","__ZN4rive17FileAssetImporter7resolveEv","__ZN4rive18ScriptedEnumValues9pushValueEi","__ZN4rive26ElasticScrollPhysicsHelper5clampEfff","_ma_slot_allocator_alloc","__ZThn456_N4rive8Artboard16syncStyleChangesEv","_rive_hb_set_subtract","_ma_sound_group_set_start_time_in_pcm_frames","__ZN4rive12TextValueRun18computeHitContoursEv","__ZN4rive17ViewModelInstance13propertyValueERKNSt3__112basic_stringIcNS1_11char_traitsIcEENS1_9allocatorIcEEEE","__ZN4rive3gpu4Draw9setClipIDEj","__ZN4rive4Solo12updateByNameERKNSt3__112basic_stringIcNS1_11char_traitsIcEENS1_9allocatorIcEEEE","_hydro_hash_hash","_ma_dr_wav_f32_to_s16","__Z13ma_wav_uninitP6ma_wavPK23ma_allocation_callbacks","_ma_channel_converter_init_preallocated","__ZNK4rive23LinearAnimationInstance9loopValueEv","_ma_sound_set_pan_mode","_artboardAddToRenderPath","_rive_hb_segment_properties_overlay","__ZNK4rive23ListenerAlignTargetBase5cloneEv","__ZNK4rive30ViewModelPropertyViewModelBase5cloneEv","__ZN4rive11PathMeasureC2Ev","_rive_png_write_tEXt","__ZN4rive8ArtboardD0Ev","_hydro_compare","__ZN4rive12BinaryReader10readStringEv","_ma_node_get_state_time","_ma_linear_resampler_uninit","__ZN4rive21ViewModelInstanceList10removeItemENS_3rcpINS_25ViewModelInstanceListItemEEE","__ZNK4rive34DataConverterStringRemoveZerosBase5cloneEv","_unrefAudioEngine","__ZN4rive20StateMachineInstance9textInputERKNSt3__112basic_stringIcNS1_11char_traitsIcEENS1_9allocatorIcEEEE","__ZN4rive17ShapePaintMutator13renderOpacityEf","_hydro_sign_update","_rawTextSetMaxWidth","_ma_calculate_buffer_size_in_frames_from_descriptor","__ZN4rive14LinearGradient17markGradientDirtyEv","__ZN4rive19TransitionCondition12onAddedCleanEPNS_11CoreContextE","__ZN4rive4math29measure_angle_between_vectorsENS_5Vec2DES1_","__ZNK4rive23TransitionBoolCondition17validateInputTypeEPKNS_17StateMachineInputE","__Z22ma_vfs_or_default_infoPvS_P12ma_file_info","__ZN4rive31DataConverterOperationViewModel19decodeSourcePathIdsENS_4SpanIKhEE","_rive_png_set_oFFs","_luaL_checklstring","__ZN4rive17DataBindContainer11addDataBindEPNS_8DataBindE","__ZN4rive18ClippingShapeStart9isVisibleEv","__ZNK4rive10LayerState12makeInstanceEPNS_16ArtboardInstanceE","_VP8LHuffmanTablesAllocate","_luaopen_buffer","__ZN4rive18DataConverterGroup6unbindEv","__ZN4rive15LayoutComponent6isLeafEv","_luaL_sandbox","__ZN4rive3gpu8PathDraw20pushTessellationDataEPNS0_13RenderContext12LogicalFlushEjj","__ZN4rive24DataConverterRangeMapper16maxOutputChangedEv","__ZN4rive3gpu8PathDraw20pushTessellationDrawEPNS0_13RenderContext12LogicalFlushEjjNS0_15ShaderMiscFlagsE","__ZN4rive23WorldTransformComponent14opacityChangedEv","__ZN4rive3gpu23RenderContextHelperImpl16mapContourBufferEm","__ZNK4rive20NestedArtboardLayout5cloneEv","_rive_png_zfree","_ma_node_graph_uninit","__ZN4rive25ScriptedPropertyViewModelD1Ev","__ZN4rive20BlendState1DInstanceC2EPKNS_12BlendState1DEPNS_16ArtboardInstanceE","__ZN4rive14GrTriangulator12MonotonePoly7addEdgeEPNS0_4EdgeE","_componentGetY","__ZN4rive7RawText9maxHeightEf","__ZN4rive10AudioAssetC1Ev","__ZN4rive18NestedStateMachineD2Ev","__ZN4rive25ScriptedPropertyViewModelD0Ev","_deleteDataEnumArray","_ma_dr_wav_init_file_write_sequential","_ma_sound_group_get_attenuation_model","__ZN4rive3gpu23RenderContextHelperImpl26resizeTriangleVertexBufferEm","_ma_sound_set_pitch","_WebPGetLinePairConverter","__ZN4rive15TextInputCursor18localClockwisePathEv","__ZNK4rive27BindablePropertyTriggerBase5cloneEv","__ZN4rive18NestedStateMachine20stateMachineInstanceEv","__ZN4rive18DistanceConstraint9constrainEPNS_18TransformComponentE","__ZN4rive12BinaryWriter5writeEd","__ZN4rive29ArtboardComponentListOverride30instanceWidthUnitsValueChangedEv","_ma_resampler_init","_luaL_pushresult","__ZN4rive18NestedStateMachine11pointerMoveENS_5Vec2DEfi","__ZN4rive14ScriptedLayout18callScriptedResizeENS_5Vec2DE","_rive_YGFloatIsUndefined","__ZNK4rive15LinearAnimation10endSecondsEv","__Z27ma_decoder_config_init_copyPK17ma_decoder_config","__ZN4rive28ScriptInputViewModelPropertyD1Ev","__ZN4rive20NestedArtboardLayout20instanceWidthChangedEv","_WebPInitAlphaProcessing","__ZN4rive18DistanceConstraint16modeValueChangedEv","__ZN4rive4SkinD2Ev","__ZN4rive11ScriptInputD0Ev","__ZN4rive13StateInstanceD2Ev","_ma_dr_wav_bytes_to_u16","__ZN4rive16DependencySorter4sortENSt3__16vectorIPNS_9ComponentENS1_9allocatorIS4_EEEERS7_","__ZN4rive18TargetedConstraint17buildDependenciesEv","__ZN4rive21ViewModelPropertyEnum5valueEjNSt3__112basic_stringIcNS1_11char_traitsIcEENS1_9allocatorIcEEEE","__Z23ma_pcm_deinterleave_s24PPvPKvyj","_lua_tocfunction","__ZNK4rive15LinearAnimation5applyEPNS_8ArtboardEff","__ZN4rive8SMIInputC2EPKNS_17StateMachineInputEPNS_20StateMachineInstanceE","__Z11ma_wav_initPF9ma_resultPvS0_mPmEPFS_S0_x14ma_seek_originEPFS_S0_PxES0_PK26ma_decoding_backend_configPK23ma_allocation_callbacksP6ma_wav","_ma_data_source_config_init","_rive_png_set_text_compression_window_bits","__ZThn160_N4rive17ScriptInputStringD0Ev","_ma_node_attach_output_bus","_getOpenUrlEventTarget","__ZN4rive14NSlicerHelpers8mapValueERKNSt3__16vectorIfNS1_9allocatorIfEEEERKNS_9ScaleInfoEff","__ZN4rive7Factory11decodeAudioENS_4SpanIKhEE","__ZN4rive21ArtboardComponentList21clearArtboardOverrideEPNS_16ArtboardInstanceE","__ZN4rive12RenderBufferD1Ev","_rive_png_get_libpng_ver","_rive_hb_buffer_reference","_rive_YGConfigGetUseLegacyStretchBehaviour","_ma_spatializer_set_position","_yogaStyleSetFlex","__ZN4rive10AudioSound4stopEy","_VP8LPredictor2_C","__ZNK4rive25CustomPropertyBooleanBase5cloneEv","_getEventCustomPropertyCount","__ZN4rive8Artboard9addObjectEPNS_4CoreE","_ma_vfs_write","_lua_clonetable","_rive_YGNodeSwapChild","__ZN4rive5Scene11pointerMoveENS_5Vec2DEfi","_ma_sound_get_time_in_pcm_frames","_rive_hb_set_allocation_successful","_ma_spatializer_get_attenuation_model","_ma_sound_group_set_attenuation_model","__ZNK4rive5Scene5widthEv","__ZNK4rive29DataConverterInterpolatorBase5cloneEv","__ZN4rive12BinaryReaderC2ENS_4SpanIKhEE","__ZN4rive12RawTextInput21selectionCornerRadiusEf","__ZN4rive17ViewModelImporter7resolveEv","_ma_pcm_s32_to_u8","__ZN4rive3gpu21ClipRectInverseMatrix5resetERKNS_5Mat2DERKNS_4AABBE","__ZN4rive9FontAsset4fontENS_3rcpINS_4FontEEE","_ma_sound_group_set_pan","__ZN4rive18DataConverterGroup7addItemEPNS_22DataConverterGroupItemE","__ZNK4rive23WorldTransformComponent14worldTransformEv","__ZN4rive16ArtboardImporter7resolveEv","_rive_hb_set_next_range","_rive_jinit_memory_mgr","__ZN4rive15LayoutComponent12onAddedCleanEPNS_11CoreContextE","_ma_delay_node_config_init","__ZN4rive20LayoutComponentStyle28paddingLeftUnitsValueChangedEv","__ZN4rive3gpu13RenderContext12LogicalFlush14writeResourcesEv","__ZN4rive35DataBindContextValueSymbolListIndexC1EPNS_8DataBindE","_ma_engine_find_closest_listener","__ZNK4rive5Scene10inputCountEv","_lua_getuserdatametatable","_ma_bpf_node_uninit","__ZN4rive7RawPath26injectImplicitMoveIfNeededEv","_ma_panner_set_mode","_ma_pcm_rb_seek_read","__ZN4rive17TextModifierRange15computeCoverageENS_4SpanIfEE","__ZN4rive11CubicVertex8renderInEv","__Z12ma_flac_initPF9ma_resultPvS0_mPmEPFS_S0_x14ma_seek_originEPFS_S0_PxES0_PK26ma_decoding_backend_configPK23ma_allocation_callbacksP7ma_flac","__ZThn16_NK4rive27ScriptedTransitionCondition19cloneScriptedObjectEPNS_17DataBindContainerE","__ZN4rive19ScriptedDataContextC2EP9lua_StateNS_3rcpINS_11DataContextEEE","_ma_dr_wav_init_file","__ZN4rive4Mesh6updateENS_13ComponentDirtE","__ZThn384_N4rive5Image12assetUpdatedEv","__ZN4rive12RenderShaderC2Ev","__ZNK4rive31TransitionValueIdComparatorBase5cloneEv","_ma_copy_and_apply_volume_factor_s16","__ZN4rive12TargetEffect15addPathProviderEPNS_12PathProviderE","_ma_sound_config_init","_ma_pcm_rb_get_subbuffer_ptr","_ma_slot_allocator_free","__ZN4rive22DataConverterStringPad7convertEPNS_9DataValueEPNS_8DataBindE","__ZThn144_N4rive12TargetEffect16createEffectPathEv","_updateLayoutBounds","_VP8LConvertBGRAToRGBA4444_C","__ZN4rive21CubicAsymmetricVertex17inDistanceChangedEv","__ZNK4rive14GrTriangulator16sanitizeContoursEPNS0_10VertexListEi","_ma_dr_mp3_get_pcm_frame_count","__ZN4rive12IKConstraint19markConstraintDirtyEv","_ma_biquad_reinit","__ZN4rive27ViewModelInstanceAssetImageC2Ev","__ZNK4rive8Artboard11layoutWidthEv","_ma_data_source_get_range_in_pcm_frames","_ma_delay_node_get_dry","_rive_png_read_sig","_lua_isyieldable","__ZThn376_NK4rive17TextInputDrawable19shapeWorldTransformEv","_rive_hb_draw_move_to","__ZN4rive7Feather14offsetXChangedEv","_ma_node_get_input_channels","__ZNK4rive24ViewModelInstanceRuntime29viewModelInstanceFromFullPathERKNSt3__112basic_stringIcNS1_11char_traitsIcEENS1_9allocatorIcEEEE","_rive_png_set_keep_unknown_chunks","__ZNK4rive3gpu13RenderContext22frameSupportsClipRectsEv","__ZN4rive18ContainerComponent6forAllENSt3__18functionIFbPNS_9ComponentEEEE","__ZN4rive19RectanglesToContour5resetEv","__ZN4rive11AudioEngine5levelEj","__ZN4rive13StateInstanceD0Ev","_ma_spatializer_get_relative_position_and_direction","_rive_png_set_scale_16","__ZN4rive17FileAssetContents15decodeSignatureENS_4SpanIKhEE","__ZThn408_NK4rive9TextInput11localBoundsEv","__ZNK4rive15LinearAnimation15durationSecondsEv","__ZN4rive14NestedArtboard11controlSizeENS_5Vec2DENS_15LayoutScaleTypeES2_NS_15LayoutDirectionE","__ZN4rive20LayoutComponentStyle18positionRightUnitsEv","__ZN4rive12BinaryReader13intRangeErrorEv","_ma_get_format_name","__ZN4rive3gpu8PathDrawC2ENS_5TAABBIiEERKNS_5Mat2DENS_3rcpIKNS_14RiveRenderPathEEENS_8FillRuleEPKNS_15RiveRenderPaintEfNS1_12CoverageTypeERKNS0_13RenderContext15FrameDescriptorE","_ma_pcm_f32_to_s24","__ZN4rive20LayoutComponentStyle16minHeightChangedEv","__ZN4rive16ScrollConstraint14clampedOffsetYEv","__ZN4rive17StateMachineLayerD1Ev","__ZN4rive3gpu13FlushUniformsC1ERKNS0_15FlushDescriptorERKNS0_16PlatformFeaturesE","_png_XYZ_from_xy","__ZN4rive3gpu8PathDraw31pushMidpointFanTessellationDataEPNS0_13RenderContext18TessellationWriterE","_fontAxisValue","_animationInstanceGetDuration","__ZNK4rive14RadialGradient12makeGradientEPNS_11RenderPaintENS_5Vec2DES3_PKjPKfm","__ZN4rive17StateMachineInput12onAddedDirtyEPNS_11CoreContextE","_ma_node_graph_config_init","_ma_sound_set_rolloff","__ZN4rive22ScriptedListenerActionD1Ev","_ma_lpf_node_reinit","_rive_hb_set_symmetric_difference","_setStateMachineDataBindChangedCallback","__ZN4rive8Drawable12onAddedDirtyEPNS_11CoreContextE","__ZNK4rive32ScriptInputViewModelPropertyBase5cloneEv","__ZThn408_N4rive14NestedArtboard4fileEPNS_4FileE","_setViewModelInstanceColorValue","__ZNK4rive17DataEnumValueBase5cloneEv","__ZN4rive12StateMachine11addListenerENSt3__110unique_ptrINS_20StateMachineListenerENS1_14default_deleteIS3_EEEE","_disposeYogaNode","_ma_channel_map_init_blank","_rive_hb_shape_plan_destroy","__ZN4rive20LayoutComponentStyle15flexGrowChangedEv","__ZNK4rive26BindablePropertyNumberBase5cloneEv","_rive_hb_draw_quadratic_to","__ZN4rive20StateMachineListener20copyViewModelPathIdsERKNS_24StateMachineListenerBaseE","__ZN4rive9Rectangle21cornerRadiusTLChangedEv","__ZN4rive23LinearAnimationInstanceD1Ev","_rive_png_malloc","__ZN4rive8TrimPath11parentPaintEv","__ZN4rive19HitScriptedDrawable12handlesEventEbNS_12ListenerTypeE","__ZN4rive20LayoutComponentStyle16flexBasisChangedEv","_riveDataBindSetDirt","__ZN4rive3gpu13RenderContext12LogicalFlush24pushStencilClipResetDrawEPNS0_16StencilClipResetE","__ZN4rive12RawTextInputC2Ev","__ZNK11rive_YGNode16getMarginForAxisE20rive_YGFlexDirectionf","__ZN4rive14GrTriangulator4Edge11insertAboveEPNS0_6VertexERKNS0_10ComparatorE","_rive_png_write_flush","__ZN4rive20LayoutComponentStyle21positionBottomChangedEv","_ma_data_converter_get_expected_output_frame_count","_rawTextSetParagraphSpacing","_rive_hb_aat_layout_get_feature_types","_ma_apply_volume_factor_pcm_frames_s24","__ZN4rive9ViewModel8propertyEm","_ma_apply_volume_factor_pcm_frames_s32","__ZN4rive26DataBindContextTargetValue15syncTargetValueEv","_rive_png_check_fp_string","_adler32_combine64","_ma_channel_converter_get_heap_size","_rive_jpeg_idct_12x6","_freeTextRunsArray","__ZN4rive10AudioAssetD2Ev","_ma_sound_group_get_min_gain","__ZN4rive11GroupEffect17buildDependenciesEv","_rawTextInputLength","__ZN4rive4DashC2Ev","__ZNK4rive23LinearAnimationInstance4nameEv","__ZN4rive3gpu13RenderContext12LogicalFlush31allocateMidpointFanTessVerticesEj","_rive_png_set_sCAL_s","__ZN4rive20StateMachineInstance10resetStateEv","__Z39ma_debug_fill_pcm_frames_with_sine_wavePfj9ma_formatjj","__ZN4rive8Artboard17addScriptedObjectEPNS_14ScriptedObjectE","_rive_jpeg_mem_init","__ZN4rive23LinearAnimationInstanceD0Ev","__ZNK11rive_YGNode19resolveFlexBasisPtrEv","_artboardWidthIntrinsicallySizeOverride","_ma_bpf2_process_pcm_frames","__ZN4rive20LayoutComponentStyle9directionEv","_WebPMultARGBRows","_rive_png_write_sRGB","_rawTextUndo","__ZN4rive4FileD1Ev","__ZN13rive_YGConfigC2EPFiPS_P11rive_YGNode15rive_YGLogLevelPKcPcE","_hydro_sign_create","__ZN11rive_YGNode8setDirtyEb","__ZN4rive4Mesh13markSkinDirtyEv","__ZN4rive7RawText6sizingENS_10TextSizingE","__ZNK4rive16ViewModelRuntime4nameEv","__ZN4rive20LayoutComponentStyle14flexBasisUnitsEv","__ZN4rive22TextFollowPathModifier18modifierShapeDirtyEv","__ZN4rive21ViewModelInstanceEnum10applyValueEPNS_16DataValueIntegerE","__ZNK4rive28TransitionSelfComparatorBase5cloneEv","__ZN4rive11AudioEngine13measureLevelsEPKfj","__ZN4rive5Shape6updateENS_13ComponentDirtE","__ZN4rive14RiveRenderPath13addRenderPathEPNS_10RenderPathERKNS_5Mat2DE","_ma_dr_wav_open_and_read_pcm_frames_s16","__ZNK4rive11ElasticEase7easeOutEf","_deflateCopy","__ZN4rive17TextModifierGroup15computeCoverageEj","__ZN4rive23CustomPropertyContainer11addPropertyEPNS_14CustomPropertyE","__ZNK4rive25TransitionNumberCondition17validateInputTypeEPKNS_17StateMachineInputE","_ma_sound_group_get_max_distance","__ZN4rive5Scene11pointerExitENS_5Vec2DEi","__ZN4rive7EllipseC1Ev","_ma_hpf1_init_preallocated","_vmiRuntimeGetBooleanProperty","__ZN4rive4Solo17propagateCollapseEb","__ZN11rive_YGNode14setMeasureFuncENS_Ut_E","__ZN4rive12StateMachineC2Ev","__ZNK4rive14GrTriangulator12emitTriangleEPNS0_6VertexES2_S2_stbPNS_3gpu21WriteOnlyMappedMemoryINS3_14TriangleVertexEEE","__ZNK4rive36ViewModelPropertySymbolListIndexBase5cloneEv","__ZN4rive10SMITriggerC2EPKNS_19StateMachineTriggerEPNS_20StateMachineInstanceE","__ZN4rive18NestedStateMachine9dragStartENS_5Vec2DEfi","__ZN4rive5Shape11pathChangedEv","_stopAudioSound","_rive_png_set_rgb_to_gray","__ZN4rive13StateInstanceD1Ev","__ZN4rive18HitTestCommandPath8fillRuleENS_8FillRuleE","__ZN13ReadWriteRing8nextReadEv","__ZN4rive15LayoutComponent12interpolatorEv","_ma_paged_audio_buffer_init","__ZNK4rive12RawTextInput6lengthEv","__ZN4rive16ScrollConstraint16advanceComponentEfNS_12AdvanceFlagsE","_rive_hb_font_glyph_from_string","__ZN4rive16EffectsContainer4fromEPNS_9ComponentE","__ZN4rive12RiveRenderer4saveEv","_setViewModelInstanceStringValue","_lua_setuserdatadtor","__ZNK4rive12NestedNumber11nestedValueEv","__ZN4rive14NestedArtboard12onAddedCleanEPNS_11CoreContextE","_WebPFreeDecBuffer","__ZN4rive28VertexPropertyListenerSingleC2EPNS_4CoreEPNS_14VertexListenerEPNS_22ViewModelInstanceValueEtf","_ma_sound_init_from_data_source","_WebPRescalerImport","_ma_copy_and_apply_volume_and_clip_samples_s24","_ma_lpf2_uninit","_makeAudioEngine","__ZNK4rive16TargetEffectBase5cloneEv","__ZN4rive17BackboardImporter10addPhysicsEPNS_13ScrollPhysicsE","__ZN4rive4Mesh17markDrawableDirtyEv","__ZN4rive14LinearGradient14markStopsDirtyEv","_ma_resampler_reset","_vmiRuntimeGetListProperty","__ZN4rive11AudioEngine5startEv","_ma_decoder_init_memory","__ZN4rive3gpu13ImageMeshDrawC1ENS_5TAABBIiEERKNS_5Mat2DENS_9BlendModeENS_3rcpINS0_7TextureEEENS_12ImageSamplerENS8_INS_12RenderBufferEEESD_SD_jf","__ZN4rive8TrimPath10endChangedEv","_rive_png_get_uint_31","_lua_pushlstring","__ZN4rive16ScriptedDrawable4drawEPNS_8RendererE","__ZNK4rive13FontAssetBase5cloneEv","_rive_YGConfigSetLogger","__ZN4rive25DataConverterInterpolator15durationChangedEv","_ma_decoder_init","__ZThn432_NK4rive11NSlicedNode16deformWorldPointENS_5Vec2DE","__ZN4rive21IntrinsicallySizeable4fromEPNS_9ComponentE","_ma_copy_and_apply_volume_factor_pcm_frames_f32","_SBLineGetLength","_VP8Decode","_ma_lpf1_process_pcm_frames","_luaopen_bit32","_WebPCheckCropDimensions","_hb_coretext_face_create","__ZThn424_NK4rive4Text11localBoundsEv","_rive_png_write_info","__ZN4rive12BinaryReader11readFloat32Ev","_deleteFlutterRenderer","_ma_dr_mp3_get_mp3_and_pcm_frame_count","_WebPDecodeYUV","_ma_hpf1_get_latency","_rawTextInputSetMaxWidth","__ZN4rive16ScrollConstraint10maxOffsetXEv","__ZNK4rive18TransformComponent11localBoundsEv","_VP8LDecodeImage","__ZN4rive4StarC2Ev","__Z21ma_pcm_interleave_s16PvPPKvyj","__ZN4rive22ViewModelInstanceColor10applyValueEPNS_14DataValueColorE","__ZNK4rive8Artboard6originEv","_ma_lpf_clear_cache","__ZN4rive25DataConverterInterpolator7convertEPNS_9DataValueEPNS_8DataBindE","__ZN4rive8RootBone8yChangedEv","__ZThn200_N4rive4Text13measureLayoutEfNS_17LayoutMeasureModeEfS1_","__ZN4rive29ViewModelInstanceValueRuntime12flushChangesEv","__ZN4rive4DashC2Efb","__ZN4rive11RenderPaintC2Ev","_rive_png_get_chunk_cache_max","__Z10DecodeJpegPKhm","_ma_mix_pcm_frames_f32","_rive_png_malloc_warn","_yogaStyleSetFlexDirection","_WebPInitUpsamplersNEON","__ZNK4rive20StateMachineInstance10getTriggerERKNSt3__112basic_stringIcNS1_11char_traitsIcEENS1_9allocatorIcEEEE","__ZN4rive14ShapePaintPathC1EbNS_8FillRuleE","__ZN4rive16ScriptedArtboard8pushDataEP9lua_State","__ZThn376_N4rive24ForegroundLayoutDrawable18localClockwisePathEv","_rive_png_safe_execute","_getNumberValue","_ma_decode_file","__ZN5skgpu17RectanizerSkyline15addSkylineLevelEiiiii","__ZN4rive24ForegroundLayoutDrawable7hitTestEPNS_7HitInfoERKNS_5Mat2DE","_rive_hb_blob_set_user_data","__ZN4rive12BinaryWriter5writeENSt3__112basic_stringIcNS1_11char_traitsIcEENS1_9allocatorIcEEEE","__ZN4rive20StateMachineListenerD0Ev","_ma_dr_wav_bytes_to_f32","_rive_hb_set_hash","_SBMirrorLocatorGetAgent","_rewindRenderPath","__ZN6HBFont8GetStyleEP14rive_hb_font_tj","__ZN4rive4Text13heightChangedEv","__ZN4rive17TextInputDrawable8willDrawEv","_ma_is_backend_enabled","__ZN4rive14ScriptedObject17setViewModelInputENSt3__112basic_stringIcNS1_11char_traitsIcEENS1_9allocatorIcEEEEPNS_22ViewModelInstanceValueE","__ZN4rive9HitTester13recurse_cubicENS_5Vec2DES1_S1_i","__Z8ma_fopenPP7__sFILEPKcS3_","__ZN4rive17ScriptedPaintData13pushBlendModeEP9lua_State","__ZN4rive19SystemStateInstance5applyEPNS_16ArtboardInstanceEf","__ZN4rive17StateMachineLayer12onAddedCleanEPNS_11CoreContextE","__ZN4rive21ArtboardComponentList8listItemEi","_ma_data_source_init","__ZNK4rive22DataConverterGroupItem5cloneEv","__ZNK4rive4Fill9pathFlagsEv","__ZNK4rive17KeyedPropertyBase5cloneEv","_rive_hb_variation_to_string","_rive_png_get_color_type","_WebPMultRows","_rive_YGAssert","_ma_data_source_node_config_init","__ZNK4rive20StateMachineInstance21currentAnimationCountEv","__ZN4rive11RenderPaintD2Ev","_lua_gettable","__ZN4rive21ArtboardComponentList21virtualizationEnabledEv","__ZN4rive3gpu22RenderContextMetalImpl14prepareToFlushEyy","_ma_copy_and_apply_volume_and_clip_samples_f32","__ZNK4rive24ViewModelInstanceRuntime22replaceViewModelByNameERKNSt3__112basic_stringIcNS1_11char_traitsIcEENS1_9allocatorIcEEEEPS0_","_ma_spatializer_listener_get_speed_of_sound","_VP8LDecodeAlphaHeader","_rawTextCursorUp","__ZN4rive4AABB4joinERS0_RKS0_S3_","__ZNK4rive17ManifestAssetBase5cloneEv","__ZN4rive5Image7assetIdEv","__ZN4rive5Shape13measureLayoutEfNS_17LayoutMeasureModeEfS1_","__ZN4rive5Mat2D13scaleByValuesEff","_stateMachineInstanceTextInput","__ZN4rive23ViewModelInstanceNumber20propertyValueChangedEv","_ma_dr_wav_take_ownership_of_metadata","__ZN4rive24ForegroundLayoutDrawable9worldPathEv","__ZThn2456_NK4rive8Artboard7resolveEj","__ZN4rive20StateMachineListener6importERNS_11ImportStackE","_hydro_kx_xx_1","_rive_png_get_io_ptr","__ZNK4rive11AudioEngine8channelsEv","__ZN4rive11AudioEngine11unlinkSoundENS_3rcpINS_10AudioSoundEEE","__ZN4rive20LayoutComponentStyle21cornerRadiusBLChangedEv","_WebPResetDecParams","__ZN4rive5Shape18localClockwisePathEv","__ZNK4rive18AnimationStateBase5cloneEv","__ZNK4rive25BindablePropertyColorBase5cloneEv","_ma_sound_set_cone","__ZN4rive5Shape12hitTestPointERKNS_5Vec2DEbb","__ZN4rive20StateMachineInstance7advanceEfb","__ZN11rive_YGNode25computeEdgeValueForColumnERKN13rive_facebook4yoga6detail6ValuesILm9EEE11rive_YGEdgeNS2_12CompactValueE","__ZN4rive20LayoutComponentStyle12alignContentEv","_vmiRuntimeProperties","__ZNK4rive5Mat2D9mapPointsEPNS_5Vec2DEPKS1_m","_ma_waveform_set_amplitude","__ZN4rive25ViewModelInstanceArtboard5assetENS_3rcpINS_16BindableArtboardEEE","__ZNK11rive_YGNode19getTrailingPositionE20rive_YGFlexDirectionf","__ZNK4rive12RootBoneBase5cloneEv","_artboardSetRenderTransform","__ZN4rive4TextD2Ev","_ma_vfs_close","__ZN15WrappedArtboardC2EONSt3__110unique_ptrIN4rive16ArtboardInstanceENS0_14default_deleteIS3_EEEENS2_3rcpINS2_4FileEEE","__ZN4rive13CoreColorType11deserializeERNS_12BinaryReaderE","__ZN4rive20LayoutComponentStyle18intrinsicallySizedEv","__ZN4rive20FollowPathConstraint9constrainEPNS_18TransformComponentE","_deflateBound","__ZN4rive20LayoutComponentStyle11heightUnitsEv","__Z22ma_vfs_or_default_seekPvS_x14ma_seek_origin","_ma_spatializer_uninit","__ZN4rive20LayoutComponentStyle8overflowEv","_rive_jinit_d_coef_controller","_ma_loshelf2_config_init","__ZN4rive25DataConverterInterpolator7advanceEf","__ZN4rive8DataBind19updateSourceBindingEb","__ZN4rive3UTF6EncodeEPhj","__ZN4rive12RawTextInput19captureJournalEntryENS_6CursorE","__ZN4rive26StateMachineLayerComponentD2Ev","_ma_sound_get_attenuation_model","__ZN4rive37TransitionPropertyViewModelComparator6importERNS_11ImportStackE","_WebPConvertARGBToUV_C","_rive_png_set_strip_alpha","_WebPGetDemuxVersion","_trimPathEffectGetOffset","__ZN4rive21KeyedPropertyImporter11addKeyFrameENSt3__110unique_ptrINS_8KeyFrameENS1_14default_deleteIS3_EEEE","__ZNK4rive26ViewModelPropertyAssetBase5cloneEv","__ZN4rive20ElasticScrollPhysics5resetEv","__ZN4rive21ArtboardComponentList26createStateMachineInstanceEPNS_9ComponentEPNS_16ArtboardInstanceE","_getGPU","_rawTextInsertText","__ZN4rive21ViewModelPropertyEnum5valueENSt3__112basic_stringIcNS1_11char_traitsIcEENS1_9allocatorIcEEEES7_","_rive_hb_font_set_var_coords_design","__ZN4rive21DataConverterToNumber11convertEnumEPNS_13DataValueEnumE","__ZN4rive25ViewModelInstanceListItem6importERNS_11ImportStackE","__ZN4rive16ScrollConstraint7offsetYEf","_rive_jpeg_idct_7x7","_ma_data_source_get_next_callback","__Z23ma_pcm_deinterleave_s16PPvPKvyj","_yogaStyleGetAlignContent","__ZN4rive17ScriptInputString20propertyValueChangedEv","__ZN4rive13DataConverterD2Ev","__ZNK4rive4AABB5roundEv","_ma_waveform_uninit","__ZN13rive_YGConfig20setCloneNodeCallbackEPFP11rive_YGNodeS1_S1_iE","_transform","__ZN4rive21ArtboardComponentList16clearDataContextEv","__ZN4rive21AnimationResetFactory9fromStateEPNS_13StateInstanceERNSt3__16vectorIPKNS_15LinearAnimationENS3_9allocatorIS7_EEEE","__ZNK4rive16KeyFrameUintBase5cloneEv","__ZNK4rive21ArtboardComponentList14createArtboardEPNS_9ComponentENS_3rcpINS_25ViewModelInstanceListItemEEE","__ZN4rive21ViewModelPropertyEnum10valueIndexEj","__ZThn400_N4rive8ArtboardD1Ev","_rawTextCursorDown","_ma_sound_group_set_volume","__ZThn432_NK4rive11NSlicedNode16deformLocalPointENS_5Vec2DERKNS_5Mat2DES4_","__ZN4rive3gpu13RenderContext16releaseResourcesEv","__ZN4rive20StateMachineImporterC2EPNS_12StateMachineE","_lua_error","__ZN4rive13KeyedProperty12onAddedDirtyEPNS_11CoreContextE","__ZN4rive20NestedRemapAnimation7advanceEfb","__ZN4rive9HitTester5resetERKNS_5TAABBIiEE","__ZN11rive_YGNode21markDirtyAndPropagateEv","__ZN4rive15LayoutComponent11clipChangedEv","_ma_sound_group_get_engine","_makeFontWithOptions","_riveFileViewModelRuntimeByName","__ZN4rive10PathDasher9applyDashEPNS_14ShapePaintPathEPKNS_7RawPathEPNS_11PathMeasureEPNS_4DashENS_4SpanIS9_EE","__ZNK4rive15NSlicedNodeBase5cloneEv","_rive_hb_font_glyph_to_string","_stateMachineInstanceDragStart","__ZN4rive29ArtboardComponentListOverride30instanceHeightScaleTypeChangedEv","_ma_hpf_get_latency","_deletePathMeasure","__ZN4rive20LayoutComponentStyle17borderBottomUnitsEv","__ZThn144_N4rive12TargetEffect10effectPathEPNS_12PathProviderE","__ZN4rive18LayerStateImporterC1EPNS_10LayerStateE","_lua_setuserdatatag","__ZN4rive7RawPath4lineENS_5Vec2DE","_ma_copy_and_apply_volume_factor_pcm_frames_s24","__ZN4rive15LayoutComponent16mainAxisIsColumnEv","_stateMachineDataContextFromInstance","__ZN4rive20LayoutComponentStyle14displayChangedEv","__ZN4rive21ArtboardComponentList10addMapRuleEPNS_19ArtboardListMapRuleE","_ma_data_source_seek_to_pcm_frame","_ma_rb_get_subbuffer_size","_rive_png_destroy_png_struct","__ZN4rive9SliceMesh13onAssetLoadedEPNS_11RenderImageE","__ZThn152_N4rive8TrimPath16createEffectPathEv","_audioSourceSampleRate","__ZN4rive24ViewModelInstanceBoolean10applyValueEPNS_16DataValueBooleanE","_rive_YGNodeStyleSetDirection","_rive_hb_ot_var_normalize_coords","_setViewModelInstanceSymbolListIndexValue","__ZNK4rive12RawTextInput5emptyEv","__ZN4rive21ScriptedDataConverter16advanceComponentEfNS_12AdvanceFlagsE","__ZNK4rive5Mat2D5scaleENS_5Vec2DE","__ZNK4rive28ListFollowPathConstraintBase5cloneEv","__ZN17FlutterRenderPathD2Ev","__ZN4rive17ViewModelInstance15removeDependentEPNS_17DataBindContainerE","_lua_pushthread","_componentSetScaleX","_ma_decoder_get_available_frames","_rive_png_destroy_read_struct","_rive_png_set_interlace_handling","__ZN4rive4Solo18getActiveChildNameEv","_ma_decoder_uninit","__ZNK4rive10ShapePaint24parentTransformComponentEv","__ZN4rive8DataBind8toTargetEv","_ma_fence_uninit","_rive_hb_font_funcs_create","__ZN4rive20LayoutComponentStyle29paddingRightUnitsValueChangedEv","_rive_hb_script_from_string","__ZN4rive9HitTester8testMeshERKNS_5TAABBIiEENS_4SpanINS_5Vec2DEEENS5_ItEE","__ZN4rive14NestedArtboard16advanceComponentEfNS_12AdvanceFlagsE","__ZN4rive20LayoutComponentStyle21alignSelfValueChangedEv","__ZN4rive4Path8collapseEb","__ZN4rive14ScriptedObject12scriptUpdateEv","__ZNK4rive16BinaryDataReader11didOverflowEv","_rive_hb_font_get_glyph_v_advances","_rive_hb_font_get_synthetic_slant","_ma_apply_volume_factor_pcm_frames","__ZNK4rive17TextInputDrawable19shapeWorldTransformEv","__ZN4rive17TextModifierGroup12rangeChangedEv","__ZN4rive20LayoutComponentStyle16paddingLeftUnitsEv","_trimPathEffectSetStart","_VP8ResetProba","__ZN4rive3gpu13FlushUniformsC2ERKNS0_15FlushDescriptorERKNS0_16PlatformFeaturesE","__ZN4rive3gpu13RenderContext18TessellationWriter9pushCubicEPKNS_5Vec2DENS0_17ContourDirectionsES3_jjjj","__ZN4rive20LayoutComponentStyle16gapVerticalUnitsEv","__ZThn408_N4rive14NestedArtboard21bindViewModelInstanceENS_3rcpINS_17ViewModelInstanceEEENS1_INS_11DataContextEEE","__ZN4rive8ArtboardD2Ev","_ma_rb_acquire_read","__ZN4rive22TextFollowPathModifier15strengthChangedEv","__ZN4rive16ArtboardInstance19defaultStateMachineEv","_ma_pcm_s32_to_s16","__ZN4rive19ThumbDraggableProxy9startDragENS_5Vec2DEf","__ZN4rive23ListenerViewModelChangeD1Ev","_rive_YGNodeStyleSetMaxWidth","_rive_png_set_bKGD","__ZNK4rive24ViewModelInstanceRuntime8propertyERKNSt3__112basic_stringIcNS1_11char_traitsIcEENS1_9allocatorIcEEEE","_VP8LCheckSignature","__ZN4rive14GrTriangulator8EdgeList6insertEPNS0_4EdgeES3_S3_","__ZN4rive3gpu17RenderTargetMetalC1EPU19objcproto9MTLDevice11objc_object14MTLPixelFormatjjRKNS0_16PlatformFeaturesE","_rawTextSelectWord","_yogaStyleSetFlexWrap","__ZNK4rive12RiveRenderer11ClipElement12isEquivalentERKNS_5Mat2DEPKNS_14RiveRenderPathE","_VP8LPredictor8_C","__ZN4rive11ScriptAsset2vmEv","_trimPathEffectSetOffset","__ZN4rive20ElasticScrollPhysics7prepareENS_28DraggableConstraintDirectionE","__ZN4rive12ScriptedNodeC2ENS_3rcpINS_20ScriptReffedArtboardEEEPNS_18TransformComponentE","__ZN4rive3gpu13RenderContext12LogicalFlush19pushOuterCubicsDrawEPKNS0_8PathDrawENS0_8DrawTypeEjjNS0_15ShaderMiscFlagsE","__ZN4rive19ScrollBarConstraint19computedThumbHeightEv","_ma_resampler_process_pcm_frames","__ZN4rive27DataBindContextValueBoolean5applyEPNS_4CoreEjb","_ma_sound_get_pan","_ma_spatializer_listener_set_direction","_rive_hb_font_funcs_set_glyph_from_name_func","__ZN4rive11AudioEngineD1Ev","__ZN4rive3gpu13RenderContext18TessellationWriter11pushContourENS_5Vec2DEbbj","_ma_encoder_init_vfs","_stateMachineReportedEventAt","_rawTextInputSetText","__ZNK4rive25ListenerTriggerChangeBase5cloneEv","_yogaStyleSetFlexGrow","__ZN6HBFont16shapeFallbackRunERN4rive18SimpleArrayBuilderINS0_8GlyphRunEEEPKjjRKNS0_7TextRunES9_j","__ZN4rive12luaopen_riveEP9lua_State","__ZNK4rive4Path13pathTransformEv","__ZN4rive19TrackDraggableProxy9startDragENS_5Vec2DEf","_rive_png_set_sBIT","__ZN4rive12StrokeEffect25invalidateEffectFromLocalEv","__ZNK4rive23LinearAnimationInstance15durationSecondsEv","__Z10DecodeWebPPKhm","__ZN4rive20ClampedScrollPhysics5clampENS_5Vec2DES1_S1_","__ZNK4rive15StateTransition7allowedEPNS_13StateInstanceEPNS_20StateMachineInstanceEPNS_25StateMachineLayerInstanceE","__ZNK4rive4File13artboardNamedENSt3__112basic_stringIcNS1_11char_traitsIcEENS1_9allocatorIcEEEE","__ZN4rive21ScriptedDataConverter10scriptInitEP9lua_State","__ZN15WrappedDataBindD1Ev","__ZN4rive9colorLerpEjjf","_save","_ma_lpf_uninit","__ZNK4rive14RiveRenderPath13getCoarseAreaEv","__ZN4rive20ElasticScrollPhysicsD0Ev","__ZNK4rive40TransitionPropertyArtboardComparatorBase5cloneEv","__ZN4rive17BlendState1DInput6importERNS_11ImportStackE","__ZN4rive10BlendState12addAnimationEPNS_14BlendAnimationE","__ZN4rive12KeyFrameBool18applyInterpolationEPNS_4CoreEifPKNS_8KeyFrameEf","_ma_bpf_process_pcm_frames","__ZN4rive9FileAsset6importERNS_11ImportStackE","__ZN4rive11KeyedObjectD1Ev","_rive_jpeg_idct_6x12","__ZN19FlutterVertexBufferD2Ev","__ZN4rive17ScriptedViewModel8instanceEP9lua_State","_ma_result_description","_ma_dr_flac_open_file_with_metadata_w","_setViewModelInstanceAssetCallback","__Z22ma_wav_read_pcm_framesP6ma_wavPvyPy","__ZThn312_NK4rive14TextStylePaint19shapeWorldTransformEv","__ZThn408_N4rive14NestedArtboard15updateDataBindsEv","__ZN4rive18ScriptedPathEffect15addScriptedDirtENS_13ComponentDirtEb","_ma_sound_group_config_init","_ma_data_source_get_length_in_seconds","_yogaStyleGetPositionType","_VP8LPredictor1_C","__ZN4rive18TransformComponent13scaleYChangedEv","__ZNK4rive11AudioReader10sampleRateEv","_VP8LDecodeHeader","__ZN4rive25ScriptedPropertyViewModelC1EP9lua_StateNS_3rcpINS_9ViewModelEEENS3_INS_26ViewModelInstanceViewModelEEE","__ZNK4rive18ContourMeasureIter12addCubicSegsEPNS_14ContourMeasure7SegmentEPKNS_5Vec2DEjjf","__ZNK4rive8Artboard13isTranslucentEPKNS_15LinearAnimationE","__ZN4rive14ScriptedObject6reinitEv","__ZN4rive29ViewModelInstanceColorRuntime4argbEiiii","_riveFileAssetName","__ZN4rive14GrTriangulator4PolyC2EPNS0_6VertexEi","__ZN4rive3gpu22RenderContextMetalImpl11MakeContextEPU19objcproto9MTLDevice11objc_objectRKNS1_14ContextOptionsE","_ma_clip_pcm_frames","__ZN4rive6Vertex6deformERKNS_5Mat2DEPKf","__ZNK4rive9TextStyle5cloneEv","__ZN4rive20StateMachineInstance20notifyEventListenersERKNSt3__16vectorINS_11EventReportENS1_9allocatorIS3_EEEEPNS_14NestedArtboardE","__ZN4rive11AudioSource10sampleRateEv","__ZN4rive7SMIBoolC1EPKNS_16StateMachineBoolEPNS_20StateMachineInstanceE","_viewModelInstancePropertyValue","__ZNK4rive23CustomPropertyColorBase5cloneEv","_ma_pcm_rb_acquire_read","__ZN4rive5Mat2D12fromRotationEf","_luaopen_utf8","_ma_dr_wav_open_file_and_read_pcm_frames_s16_w","__ZNK4rive14CursorPosition14visualPositionERKNS_15FullyShapedTextE","__ZN4rive9ViewModelD2Ev","_luaL_callmeta","_ma_peak_node_uninit","__ZNK4rive20StateMachineListener22viewModelPathIdsBufferEv","__ZN4rive8TrimPath12startChangedEv","__ZN4rive12StateMachineD1Ev","_rive_png_write_finish_row","_ma_engine_set_gain_db","__ZN4rive22ViewModelInstanceValue12addDependentEPNS_9DirtyableE","_WebPInitUpsamplers","_ma_sound_get_cursor_in_pcm_frames","__ZThn136_N4rive28ScriptInputViewModelPropertyD0Ev","_rive_hb_draw_funcs_set_quadratic_to_func","_ma_engine_node_init_preallocated","_rive_png_image_begin_read_from_memory","_rive_png_set_alpha_mode_fixed","__ZN4rive16ScrollConstraint10maxOffsetYEv","__ZN4rive8Artboard12addToRawPathERNS_7RawPathEPKNS_5Mat2DE","_ma_delay_get_decay","_ma_engine_get_log","__ZThn2456_N4rive16ArtboardInstanceD1Ev","__ZN4rive8Artboard8xChangedEv","_rive_jpeg_mem_available","__ZN4rive26DataConverterGroupImporterC1EPNS_18DataConverterGroupE","__ZN4rive14TextStylePaint10rewindPathEv","_ma_biquad_get_latency","_ma_log_unregister_callback","__ZN4rive11ScriptingVMD2Ev","__Z23luaopen_rive_propertiesP9lua_State","__ZN4rive22DataConverterGroupItemD1Ev","_ma_dr_wav_s32_to_f32","_rive_png_set_background","__ZNK4rive6Cursor19updateSelectionPathERNS_14ShapePaintPathERKNSt3__16vectorINS_4AABBENS3_9allocatorIS5_EEEERKNS_15FullyShapedTextE","_ma_panner_process_pcm_frames","__ZNK4rive37TransitionPropertyViewModelComparator10useInLayerEPKNS_20StateMachineInstanceEPNS_25StateMachineLayerInstanceE","_VP8LHtreeGroupsFree","_ma_pulsewave_uninit","_lua_totalbytes","__ZNK4rive7RawText8maxWidthEv","_ma_async_notification_event_signal","__ZN4rive16ScrollConstraint17visibleWidthRatioEv","_SBLineGetRunCount","_rive_jinit_upsampler","_riveArtboardGetOpacity","_ma_data_source_seek_seconds","_rive_YGNodeInsertChild","__ZN4rive16BinaryDataReaderC1EPhm","__ZN4rive11AudioEngine16initLevelMonitorEv","_rive_png_check_IHDR","_rive_hb_ot_layout_script_get_language_tags","_deleteGlyphPath","__ZN4rive18TargetedConstraint8validateEPNS_11CoreContextE","_rive_hb_tag_to_string","__ZN4rive17RiveRenderFactory19makeEmptyRenderPathEv","_ma_log_callback_init","_ma_node_graph_read_pcm_frames","_lua_newthread","_rive_YGNodeStyleSetFlexWrap","_vmiValueRuntimeHasChanged","_ma_context_uninit","_rive_hb_font_funcs_set_glyph_h_kerning_func","__ZN4rive12GradientStop17colorValueChangedEv","_rive_YGConfigSetCloneNodeFunc","_rive_jpeg_idct_16x16","_rive_png_set_iCCP","__ZN4rive17ScriptedAnimation8durationEv","_lua_rawget","_rive_YGConfigGetUseWebDefaults","_rive_YGNodeNewWithConfig","__ZThn448_N4rive21ArtboardComponentList21virtualizationEnabledEv","_rive_hb_ot_layout_get_baseline_with_fallback2","__ZN4rive10RenderPathC2Ev","_ma_context_init","__ZN4rive4Text6addRunEPNS_12TextValueRunE","_renderPathHitTest","__ZN4rive4File9viewModelENSt3__112basic_stringIcNS1_11char_traitsIcEENS1_9allocatorIcEEEE","__ZN4rive3UTF15CountUTF8LengthEPKh","_rive_hb_unicode_funcs_set_mirroring_func","_ma_dr_mp3dec_init","__ZN4rive9SliceMeshC2EPNS_7NSlicerE","_ma_sound_group_set_positioning","_png_handle_chunk","__ZN4rive17FileAssetImporterC2EPNS_9FileAssetENS_3rcpINS_15FileAssetLoaderEEEPNS_7FactoryE","_yogaNodeSetType","__ZN4rive21ScriptedDataConverter13pushDataValueEPNS_9DataValueE","__ZNK4rive21TextModifierGroupBase5cloneEv","__ZN4rive16ArtboardInstance12defaultSceneEv","_riveFileArtboardNamed","_VP8LDoFillBitWindow","_rive_hb_draw_funcs_destroy","_ma_blend_f32","__ZN4rive26DataBindContextValueNumberC1EPNS_8DataBindE","_ma_engine_set_time","__ZN4rive5Shape7addPathEPNS_4PathE","_lua_isthreadreset","__Z18ma_wav_init_file_wPKwPK26ma_decoding_backend_configPK23ma_allocation_callbacksP6ma_wav","__ZN4rive18CoreObjectListenerC1EPNS_4CoreENS_3rcpINS_17ViewModelInstanceEEE","__ZN4rive20StateMachineInstanceC1EPKNS_12StateMachineEPNS_16ArtboardInstanceE","__ZN4rive23ScriptedPropertyBooleanC2EP9lua_StateNS_3rcpINS_24ViewModelInstanceBooleanEEE","__ZN4rive18ScriptInputBooleanD1Ev","__ZN4rive28ViewModelInstanceListRuntime11addInstanceEPNS_24ViewModelInstanceRuntimeE","__ZN4rive17ViewModelInstance16onComponentDirtyEPNS_9ComponentE","__ZN4rive18ScriptedPathEffect6updateENS_13ComponentDirtE","__ZThn2456_N4rive8ArtboardD1Ev","__ZN4rive4Mesh22copyTriangleIndexBytesERKNS_8MeshBaseE","__ZN4rive17TextModifierGroup13scaleXChangedEv","__ZN4rive12KeyFrameUint5applyEPNS_4CoreEif","__ZN4rive8DataBind6updateENS_13ComponentDirtE","_ma_pcm_s24_to_s16","_ma_copy_and_apply_volume_factor_pcm_frames_s32","_rive_png_get_unknown_chunks","_ma_node_detach_output_bus","__ZN4rive11ScriptingVM9dumpStackEP9lua_State","__ZThn144_N4rive19DraggableConstraint14listenerGroupsEv","_rawTextClipPath","_ma_device_get_log","_yogaStyleSetPositionType","_VP8LColorCacheInit","_ma_engine_get_channels","__ZN4rive12TextValueRun12onAddedCleanEPNS_11CoreContextE","_ma_hpf_node_reinit","_setViewModelInstanceEnumCallback","_rive_YGNodeStyleGetFlexGrow","__ZN4rive14KeyFrameString5applyEPNS_4CoreEif","__ZN4rive15LayoutComponent19positionTypeChangedEv","__ZN4rive4Dash25lengthIsPercentageChangedEv","__ZN4rive8Artboard10initializeEv","__ZN4rive14ScriptedObject10scriptInitEP9lua_State","_rive_png_start_read_image","_PaletteSort","__ZN4rive3UTF8NextUTF8EPPKh","_lua_pushnumber","_makeFlutterFactory","__ZN4rive12DataBindPath10decodePathENS_4SpanIKhEE","_rive_YGNodeGetHasNewLayout","_deleteRenderPaint","_ma_get_backend_name","__ZN4rive20LayoutComponentStyle18borderRightChangedEv","__ZN4rive21ViewModelInstanceList4swapEjj","__ZN4rive14opacityToAlphaEf","__ZNK6HBFont15getFeatureValueEj","__ZN4rive12RenderShaderD2Ev","__ZNK4rive14GrTriangulator8makePolyEPPNS0_4PolyEPNS0_6VertexEi","_ma_audio_buffer_get_length_in_pcm_frames","__ZN4rive20DataConverterRounder7convertEPNS_9DataValueEPNS_8DataBindE","__ZN4rive29ViewModelInstanceListImporterC2EPNS_21ViewModelInstanceListE","_ma_spatializer_listener_init","_ma_resampler_get_output_latency","__ZNK4rive20ScriptInputColorBase5cloneEv","__ZNK4rive29ViewModelPropertyArtboardBase5cloneEv","__ZN4rive20LayoutComponentStyle28marginRightUnitsValueChangedEv","_rive_png_set_user_transform_info","_rive_YGConfigGetContext","__ZN4rive20LayoutComponentStyle17borderLeftChangedEv","_ma_data_source_get_cursor_in_pcm_frames","_rive_YGConfigSetContext","__ZN6BitmapC2EjjNS_11PixelFormatENSt3__110unique_ptrIA_KhNS1_14default_deleteIS4_EEEE","__ZN4rive12RiveRenderer13drawImageMeshEPKNS_11RenderImageENS_12ImageSamplerENS_3rcpINS_12RenderBufferEEES7_S7_jjNS_9BlendModeEf","__ZN4rive11NSlicedNode11controlSizeENS_5Vec2DENS_15LayoutScaleTypeES2_NS_15LayoutDirectionE","__ZN4rive14VertexListener22createPropertyListenerENS_10SymbolTypeE","__ZN4rive16ScriptedArtboardD2Ev","__ZN4rive23StateMachineFireTrigger20copyViewModelPathIdsERKNS_27StateMachineFireTriggerBaseE","_lua_gc","__ZN4rive11RangeMapper14fromCharactersENS_4SpanIKjEEjjRKNS_11GlyphLookupEb","_renderPathColinearCheck","_ma_engine_get_sample_rate","__ZN4rive10ImageAssetD2Ev","__ZThn384_N4rive5Image7assetIdEv","__ZNK4rive34TransitionValueColorComparatorBase5cloneEv","__ZN4rive15StateTransitionD2Ev","__ZN4rive11ScriptingVMC1EPNS_16ScriptingContextE","_ma_gainer_set_gains","__ZN4rive10AudioAssetD0Ev","__ZN4rive19ElasticInterpolatorC1Ev","_lua_debugtrace","_rive_png_benign_error","__Z17luaopen_rive_blobP9lua_State","__ZN4rive15LayoutComponent18updateLayoutBoundsEb","__ZN4rive20TextValueRunListener22createPropertyListenerENS_10SymbolTypeE","__ZThn400_N4rive15LayoutComponentD1Ev","__ZN4rive16colorWithOpacityEjf","_rive_jpeg_idct_3x3","_rive_jpeg_idct_6x6","_lua_getmetatable","_ma_channel_map_get_channel","_ma_lpf1_clear_cache","__ZN4rive8ListPathD2Ev","__ZN4rive23LinearAnimationImporter14addKeyedObjectENSt3__110unique_ptrINS_11KeyedObjectENS1_14default_deleteIS3_EEEE","__ZN6HBFontD0Ev","__ZN4rive12ScriptedNodeC1ENS_3rcpINS_20ScriptReffedArtboardEEEPNS_18TransformComponentE","__ZThn376_NK4rive21ArtboardComponentList4fileEv","__ZN4rive12RawTextInput4textENSt3__112basic_stringIcNS1_11char_traitsIcEENS1_9allocatorIcEEEE","__ZNK11rive_YGNode19marginTrailingValueE20rive_YGFlexDirection","__ZN4rive28DataConverterFormulaImporterC2EPNS_20DataConverterFormulaE","_lua_setreadonly","__ZThn376_N4rive17TextInputDrawable9worldPathEv","__ZN4rive24BlendStateDirectInstanceC2EPKNS_16BlendStateDirectEPNS_16ArtboardInstanceE","_rive_hb_face_get_upem","_ma_dr_wav_fmt_get_format","__ZNK4rive6Stroke8pickPathEPNS_19ShapePaintContainerE","__ZNK4rive33DataConverterSystemNormalizerBase5cloneEv","__ZN4rive16PropertyRecorder8completeERNS_18VectorBinaryWriterERNS_16BinaryDataReaderERNSt3__16vectorIhNS5_9allocatorIhEEEE","__ZN4rive4Path13markPathDirtyEb","__Z22ma_pcm_deinterleave_u8PPvPKvyj","__ZNK4rive21FormulaTokenInputBase5cloneEv","__ZNK4rive25DataConverterToNumberBase5cloneEv","__ZNK4rive18TextTargetModifier13textComponentEv","_rive_png_set_cHRM","_rive_png_get_pCAL","__ZN4rive15RiveRenderPaintD2Ev","_rawTextGetParagraphSpacing","__ZN4rive17StateMachineInput12onAddedCleanEPNS_11CoreContextE","_deflate","__ZN4rive16ScriptedArtboardC2EP9lua_StateNS_3rcpINS_4FileEEEONSt3__110unique_ptrINS_16ArtboardInstanceENS6_14default_deleteIS8_EEEE","__ZThn160_N4rive7NSlicer11axisChangedEv","__ZNK4rive20StateMachineInstance9getNumberERKNSt3__112basic_stringIcNS1_11char_traitsIcEENS1_9allocatorIcEEEE","_rive_YGNodeSetMeasureFunc","_breakLines","_VP8LColorIndexInverseTransformAlpha","__ZN4rive3gpu8Gradient10MakeLinearEffffPKjPKfm","__ZNK4rive22ListenerBoolChangeBase5cloneEv","__ZN4rive12StrokeEffectD0Ev","_hydro_random_u32","__ZN6HBFontD1Ev","__ZN4rive17DataBindContainer16addDirtyDataBindEPNS_8DataBindE","__ZN4rive3gpu23RenderContextHelperImpl16resizePathBufferEmNS0_22StorageBufferStructureE","__ZN4rive8Artboard21bindViewModelInstanceENS_3rcpINS_17ViewModelInstanceEEENS1_INS_11DataContextEEE","_SBParagraphGetLength","__ZThn16_N4rive22ScriptedListenerActionD1Ev","__ZN4rive17TextModifierGroup19resetTextFollowPathEv","_luaopen_table","_artboardHeightIntrinsicallySizeOverride","_yogaStyleSetAlignSelf","__ZNK4rive31ScriptedTransitionConditionBase5cloneEv","__ZN4rive16ScrollConstraint20constrainVirtualizedEb","__ZN4rive24ViewModelInstanceRuntimeD1Ev","__ZNK4rive8Artboard20nestedArtboardAtPathERKNSt3__112basic_stringIcNS1_11char_traitsIcEENS1_9allocatorIcEEEE","_setArtboardLayoutDirtyCallback","__ZN4rive14VertexListenerC2EPNS_6VertexENS_3rcpINS_17ViewModelInstanceEEEPNS_4PathE","_ma_data_converter_reset","_rive_png_get_sPLT","_ma_engine_set_time_in_milliseconds","__ZN4rive17ScriptedPaintDataC2EPKNS_10ShapePaintE","__ZN4rive17ViewModelImporter11addInstanceEPNS_17ViewModelInstanceE","__ZNK4rive21ViewModelPropertyBase5cloneEv","_lua_ref","_VP8ExitCritical","_rive_hb_face_get_glyph_count","_ma_sound_set_positioning","__ZN4rive16ScriptedRenderer7restoreEP9lua_State","_ma_node_config_init","__ZNK4rive5Mat2D9decomposeEv","_lua_objlen","_ma_vfs_open_w","__ZN4rive5Shape7hitTestEPNS_7HitInfoERKNS_5Mat2DE","_ma_bpf_node_init","__Z17ma_pcm_s32_to_s32PvPKvy14ma_dither_mode","__ZN4rive14NestedArtboard18addNestedAnimationEPNS_15NestedAnimationE","_processScheduledDeletions","__ZN4rive17FileAssetContents13copySignatureERKNS_21FileAssetContentsBaseE","_rive_jpeg_save_markers","_ma_spatializer_set_max_gain","__ZN4rive20UnpackColorToRGBA32FEjPf","__ZNK4rive20StateMachineInstance17stateChangedCountEv","__ZN4rive19CubicDetachedVertex9computeInEv","__ZN4rive14ScriptedObject13scriptDisposeEv","__ZNK4rive4File14artboardNameAtEm","_rive_png_write_oFFs","__ZN4rive20ElasticScrollPhysicsD2Ev","_rive_YGNodeStyleGetFlexShrink","__ZNK4rive10TendonBase5cloneEv","__ZN4rive8Artboard12hitTestPointERKNS_5Vec2DEbb","_lua_unref","__ZN4rive14NestedArtboard6importERNS_11ImportStackE","__ZN4rive30DataBindContextValueAssetImage5applyEPNS_4CoreEjb","__ZN4rive17ScrollVirtualizer9constrainEPNS_16ScrollConstraintERNSt3__16vectorIPNS_18LayoutNodeProviderENS3_9allocatorIS6_EEEEfNS_20VirtualizedDirectionE","__ZN4rive21BlendState1DViewModel6importERNS_11ImportStackE","_ma_sound_group_get_pitch","_ma_device_job_thread_init","_rive_png_init_read_transformations","__ZThn2456_N4rive16ArtboardInstanceD0Ev","_ma_sound_group_set_max_gain","_ma_dr_wav_init_write_sequential_pcm_frames","_hydro_sign_verify","_ma_node_graph_get_channels","__ZN4rive3gpu22RenderContextMetalImpl5flushERKNS0_15FlushDescriptorE","__ZThn424_NK4rive11NSlicedNode21deformWorldRenderPathERNS_7RawPathE","__ZN4rive16ScrollConstraint11stopPhysicsEv","__ZN4rive21ArtboardComponentList14applyRecordersEPNS_8ArtboardEPKS1_","__ZNK4rive16TextValueRunBase5cloneEv","__ZN4rive12StateMachine17addScriptedObjectEPNS_14ScriptedObjectE","__ZNK4rive25StateMachineFireEventBase5cloneEv","__ZN4rive9Component12onAddedDirtyEPNS_11CoreContextE","_imageAssetGetHeight","_ma_sound_stop_with_fade_in_milliseconds","__ZN4rive15RiveRenderPaint5imageENS_3rcpINS_3gpu7TextureEEEf","_rive_hb_set_get_user_data","_rive_png_image_write_to_stdio","__ZN4rive13ClippingShapeD1Ev","__ZN4rive12BinaryReader13readVarUint64Ev","__ZNK4rive8Artboard7layoutYEv","__ZN4rive14CursorPosition15fromOrderedLineERKNS_11OrderedLineEjfRKNS_15FullyShapedTextE","__ZN4rive17TextModifierRange8addChildEPNS_9ComponentE","__ZN4rive10ShapePaint6updateENS_13ComponentDirtE","_ma_delay_node_init","_ma_sound_group_get_directional_attenuation_factor","_luaopen_debug","__ZN4rive8DataBindD2Ev","_viewModelRuntimePropertyCount","_ma_dr_wav_seek_to_pcm_frame","_rive_YGNodeStyleGetPositionType","__ZNK4rive30TransitionTriggerConditionBase5cloneEv","_ma_engine_get_endpoint","__ZNK4rive23ArtboardListMapRuleBase5cloneEv","_WebPDemuxGetChunk","__ZN4rive6Vertex8yChangedEv","__ZN4rive18ArtboardReferencer4fromEPNS_4CoreE","_ma_sound_seek_to_second","__ZN4rive10RenderPathD1Ev","_ma_node_set_state_time","__ZN4rive21ArtboardComponentList4drawEPNS_8RendererE","_ma_dr_mp3_init_file","_rive_jpeg_idct_5x5","_setViewModelInstanceNumberCallback","__ZNK4rive14ContourMeasure9getPosTanEf","__ZN4rive9TextInput11controlSizeENS_5Vec2DENS_15LayoutScaleTypeES2_NS_15LayoutDirectionE","__ZN4rive23LinearAnimationInstance5resetEf","__ZN4rive3gpu13RenderContext20unmapResourceBuffersERKNS1_24ResourceAllocationCountsE","__ZN4rive10RenderPathD0Ev","__ZThn384_N4rive5Image8setAssetENS_3rcpINS_9FileAssetEEE","__ZN4rive14KeyFrameDouble18applyInterpolationEPNS_4CoreEifPKNS_8KeyFrameEf","__ZN4rive3gpu13RenderContextD2Ev","_luaL_newstate","_WebPYuv444ToRgba_C","_ma_spatializer_listener_set_world_up","__ZN4rive25DataConverterListToLength7convertEPNS_9DataValueEPNS_8DataBindE","__ZN4rive8Artboard16syncStyleChangesEv","__ZN4rive9ViewModel8propertyENS_10SymbolTypeE","_rive_png_get_user_transform_ptr","_makeTrimPathEffect","_ma_sound_get_position","__ZN4rive20LayoutComponentStyle17positionLeftUnitsEv","__ZN4rive9GlyphLine18ComputeLineSpacingEbNS_4SpanIS0_EENS1_IKNS_8GlyphRunEEEfNS_9TextAlignE","__ZN4rive8DataEnumD0Ev","__ZN4rive4Mesh9addVertexEPNS_10MeshVertexE","_lua_absindex","__ZN4rive16ArtboardInstance10getTriggerERKNSt3__112basic_stringIcNS1_11char_traitsIcEENS1_9allocatorIcEEEES9_","_ma_hpf1_config_init","__ZN11rive_YGNode18setLayoutDirectionE16rive_YGDirection","__ZN4rive3gpu22RenderContextMetalImpl16makeRenderBufferENS_16RenderBufferTypeENS_17RenderBufferFlagsEm","_deleteRawText","_lua_pushboolean","__ZN4rive25ViewModelInstanceArtboard20propertyValueChangedEv","__ZN4rive19ConditionComparison13compareColorsEii","_ma_dr_wav_init_memory_write","__ZN4rive4Mesh13onAssetLoadedEPNS_11RenderImageE","__ZN4rive19CubicMirroredVertex10computeOutEv","__ZN4rive20NestedArtboardLayout18updateLayoutBoundsEb","__ZN4rive27DataBindContextValueTriggerC2EPNS_8DataBindE","__ZN4rive23WorldTransformComponent23markWorldTransformDirtyEv","__ZN4rive17TextModifierGroup8yChangedEv","__ZN4rive22DataConverterGroupItem6importERNS_11ImportStackE","_ma_biquad_node_reinit","__ZNK4rive4File25completeViewModelInstanceENS_3rcpINS_17ViewModelInstanceEEE","_VP8LDspInitNEON","__ZN4rive20DataBindPathImporter5claimEv","_ma_peak2_init","_ma_decoder_get_length_in_pcm_frames","_ma_peak2_uninit","__ZN18FlutterRenderPaintD0Ev","__ZNK4rive9ImageBase5cloneEv","__ZN4rive20ScriptReffedArtboardC2ENS_3rcpINS_4FileEEEONSt3__110unique_ptrINS_16ArtboardInstanceENS4_14default_deleteIS6_EEEE","__ZN4rive20LayoutComponentStyle28borderRightUnitsValueChangedEv","_lua_tobuffer","__ZN4rive12BinaryWriter5writeEf","__ZN4rive14CursorPosition11resolveLineERKNS_15FullyShapedTextE","__ZN4rive22CubicValueInterpolator14transformValueEfff","__ZNK4rive28TransitionViewModelCondition10useInLayerEPKNS_20StateMachineInstanceEPNS_25StateMachineLayerInstanceE","_rive_hb_font_create","__ZNK4rive6Stroke9isVisibleEv","_rive_png_do_bgr","__Z31ma_wav_get_cursor_in_pcm_framesP6ma_wavPy","_VP8LClear","__ZN4rive8Artboard4hostEPNS_12ArtboardHostE","__ZNK4rive17ClippingShapeBase5cloneEv","__ZN4rive20StateMachineInstance23reportListenerViewModelEPNS_17ListenerViewModelE","__ZN4rive3gpu13RenderContext12LogicalFlush16allocateGradientEPKNS0_8GradientEPNS0_17ColorRampLocationE","_VP8InitRandom","__ZN4rive31DataConverterOperationViewModel15bindFromContextEPNS_11DataContextEPNS_8DataBindE","_hydro_kx_n_1","__ZN4rive11CubicVertex7inPointEv","__Z17luaopen_rive_meshP9lua_State","__ZN4rive8ListPath10updateListEPNSt3__16vectorINS_3rcpINS_25ViewModelInstanceListItemEEENS1_9allocatorIS5_EEEE","_ma_notch2_process_pcm_frames","__ZN4rive4File9viewModelEm","_rive_hb_font_get_face","__ZN4rive16BinaryDataReader11readVarUintEv","__ZN4rive17ScrollVirtualizerD2Ev","__ZN4rive16PropertyRecorderC2Ev","__ZNK4rive25TransitionNumberCondition8evaluateEPKNS_20StateMachineInstanceEPNS_25StateMachineLayerInstanceE","_rive_png_get_iCCP","__ZNK4rive16KeyFrameBoolBase5cloneEv","_ma_pcm_s24_to_u8","__ZN4rive21ArtboardComponentList12bindArtboardEPNS_16ArtboardInstanceENS_3rcpINS_25ViewModelInstanceListItemEEE","__ZNK4rive4File30createDefaultViewModelInstanceEPNS_8ArtboardE","__ZN4rive12RenderBufferD2Ev","__ZN4rive9SliceMesh13updateBuffersEv","__ZN4rive17TextModifierRange13offsetChangedEv","_rive_hb_ot_layout_language_get_required_feature","_riveFileAssetSetAudioSource","_ma_sound_get_max_distance","__ZN4rive17TextModifierGroup8xChangedEv","_setViewModelInstanceBooleanCallback","_rive_YGConfigSetUseWebDefaults","_ma_dr_wav_open_file_and_read_pcm_frames_f32","__ZNK4rive8Artboard14nestedArtboardERKNSt3__112basic_stringIcNS1_11char_traitsIcEENS1_9allocatorIcEEEE","__ZN13rive_YGConfig9setErrataE13rive_YGErrata","__ZN4rive17TextInputDrawable4drawEPNS_8RendererE","__ZN4rive26DataConverterBooleanNegate14reverseConvertEPNS_9DataValueEPNS_8DataBindE","_rive_png_set_pHYs","__ZNK4rive11OrderedLine6bottomEv","__ZN4rive20DataConverterFormulaD0Ev","__ZN4rive17TextInputDrawable9worldPathEv","__ZThn456_N4rive15LayoutComponent10layoutNodeEi","__ZN4rive4math13chop_cubic_atEPKNS_5Vec2DEPS1_PKfi","_ma_audio_buffer_ref_uninit","_ma_sound_at_end","_ma_pcm_rb_init","__ZN4rive3gpu8PathDraw28initForInteriorTriangulationEPNS0_13RenderContextEPNS_7RawPathENS1_16TriangulatorAxisE","__ZNK4rive12AnyStateBase5cloneEv","__ZNK4rive5Mat2D14mapBoundingBoxERKNS_4AABBE","__ZThn144_N4rive12TargetEffect16invalidateEffectEPNS_12PathProviderE","_yogaNodeGetType","__ZN4rive14RiveRenderPath6moveToEff","__ZN4rive14RiveRenderPath6rewindEv","_ma_sound_group_get_max_gain","__ZN4rive19RectanglesToContour16markRectIncludedEmb","__ZN4rive16ScrollConstraint10draggablesEv","_rive_png_zlib_inflate","__ZN4rive24DataConverterRangeMapper21calculateReverseRangeEPNS_9DataValueEffff","_ma_data_converter_set_rate_ratio","_crc32","__ZN4rive20StateMachineInstance11dataContextENS_3rcpINS_11DataContextEEE","_ma_delay_get_dry","__ZN4rive11GroupEffect12updateEffectEPNS_12PathProviderEPKNS_14ShapePaintPathEPKNS_10ShapePaintE","_pathMeasureAtPercentage","__ZN4rive23ScriptedPropertyTriggerC1EP9lua_StateNS_3rcpINS_24ViewModelInstanceTriggerEEE","_ma_engine_listener_set_enabled","__ZNK4rive12RawTextInput12findPositionEhRKNS_14CursorPositionEi","_renderPathIsClockwise","_hb_face_set_get_table_tags_func","__ZN4rive8DataEnum10valueIndexENSt3__112basic_stringIcNS1_11char_traitsIcEENS1_9allocatorIcEEEE","_rive_YGNodeStyleSetAspectRatio","__ZThn176_N4rive9TextStyle8setAssetENS_3rcpINS_9FileAssetEEE","__ZN4rive7Feather17buildDependenciesEv","__ZN4rive3gpu23RenderContextHelperImpl13mapPathBufferEm","_ma_bpf_init","__ZThn152_N4rive18ScriptInputTriggerD1Ev","__ZN4rive4StarC1Ev","_rive_hb_face_get_table_tags","__ZN4rive20LayoutComponentStyle19positionLeftChangedEv","_engineLevel","_WebPGetDecoderVersion","_ma_dr_wav_read_pcm_frames_f32le","__ZN4rive9TextInput14markShapeDirtyEv","_initBindingCallbacks","_dashPathEffectGetPathLength","__ZN4rive17DataBindContainer16advanceDataBindsEf","__ZNK4rive28ViewModelInstanceTriggerBase5cloneEv","_ma_audio_buffer_map","__ZN4rive5Vec2D14transformMat2DERKS0_RKNS_5Mat2DE","_viewModelRuntimeInstanceCount","__ZN4rive16ScrollConstraint14setScrollIndexEf","__ZN4rive10AudioSoundC2EPNS_11AudioEngineENS_3rcpINS_11AudioSourceEEEPNS_8ArtboardE","_rive_png_set_write_status_fn","__ZN4rive21ViewModelInstanceList10removeItemEi","__ZN4rive20BlendAnimationDirect6importERNS_11ImportStackE","_rawTextSelectedTextPath","__ZThn144_N4rive19ScriptInputArtboardD0Ev","_rive_hb_script_get_horizontal_direction","__ZN11rive_YGNode11insertChildEPS_j","__ZNK4rive4Text15effectiveSizingEv","_luaL_callyieldable","__ZN4rive18CoreObjectListenerC2EPNS_4CoreENS_3rcpINS_17ViewModelInstanceEEE","__ZNK4rive9TextStyle4fontEv","_rive_hb_ot_tag_to_script","__ZNK4rive4Text11localBoundsEv","_ma_sound_get_current_fade_volume","_rive_hb_ot_layout_feature_with_variations_get_lookups","__ZNK4rive18TransformComponent9transformEv","__ZNK4rive35TransitionValueStringComparatorBase5cloneEv","__Z11ma_strcpy_sPcmPKc","_makeAudioSource","__ZN4rive11AudioEngine4playENS_3rcpINS_11AudioSourceEEEyyyPNS_8ArtboardE","_WebPInitDecoderConfigInternal","_rive_jpeg_calc_output_dimensions","_makeEmptyRenderPath","__ZN4rive24ForegroundLayoutDrawable17buildDependenciesEv","__ZN4rive7RawText8maxWidthEf","__ZN4rive16ScrollConstraint12contentWidthEv","__ZN4rive7RawPath18pruneEmptySegmentsENS0_4IterE","__ZN4rive17FileAssetContents11decodeBytesENS_4SpanIKhEE","__ZNK4rive24BlendStateTransitionBase5cloneEv","__ZN4rive14AnimationResetC1Ev","_rive_hb_ot_layout_language_get_required_feature_index","_hydro_sign_final_create","__ZN4rive3gpu13RenderContextC2ENSt3__110unique_ptrINS0_17RenderContextImplENS2_14default_deleteIS4_EEEE","__ZN4rive27VertexPropertyListenerPointD2Ev","__ZN4rive19TransformConstraint9constrainEPNS_18TransformComponentE","_lua_settop","__ZNK4rive18KeyFrameDoubleBase5cloneEv","__ZN4rive10PointsPath13markSkinDirtyEv","__ZN4rive17ScriptInputStringD0Ev","__ZN4rive12EnumImporterC2EPNS_8DataEnumE","__ZN4rive24ListFollowPathConstraint21distanceOffsetChangedEv","__ZN4rive25ScriptedPropertyViewModelD2Ev","_rive_hb_face_set_index","__ZThn256_N4rive18ScriptedPathEffect11parentPaintEv","_rive_png_get_bKGD","__ZN4rive5Shape9localPathEv","__ZN4rive8Artboard4drawEPNS_8RendererE","_ma_copy_and_apply_volume_and_clip_samples_s16","__ZN4rive11AudioEngine6levelsENS_4SpanIfEE","__ZN4rive14GrTriangulator18makeConnectingEdgeEPNS0_6VertexES2_NS0_8EdgeTypeERKNS0_10ComparatorEi","__ZNK4rive9AxisYBase5cloneEv","__ZN4rive3gpu24BackgroundShaderCompiler14popFinishedJobEPNS0_20BackgroundCompileJobEb","__ZNK4rive14ScriptedLayout5cloneEv","_rive_YGNodeStyleSetHeightPercent","_ma_dr_wav_init_file_write_sequential_w","_vmiRuntimeGetAssetImageProperty","__ZN4rive15FullyShapedText5shapeENS_4SpanIjEENS1_INS_7TextRunEEENS_10TextSizingEffNS_9TextAlignENS_8TextWrapENS_10TextOriginENS_12TextOverflowEf","__ZN4rive20StateMachineImporter11addListenerENSt3__110unique_ptrINS_20StateMachineListenerENS1_14default_deleteIS3_EEEE","_ma_pcm_f32_to_s16","_rive_hb_font_funcs_get_empty","_rive_hb_font_set_parent","__ZN4rive16ScrollConstraintD1Ev","__ZNK4rive27ScriptedTransitionCondition16evaluateStatefulEPKNS_20StateMachineInstanceEPNS_25StateMachineLayerInstanceE","__ZNK4rive5Scene6heightEv","__ZN4rive3gpu4DrawC2ENS_5TAABBIiEERKNS_5Mat2DENS_9BlendModeENS_3rcpINS0_7TextureEEENS_12ImageSamplerENS1_4TypeE","_lua_isstring","_ma_apply_volume_factor_pcm_frames_s16","_rive_png_read_finish_IDAT","__ZN4rive16ScriptedDrawable16advanceComponentEfNS_12AdvanceFlagsE","_getBooleanValue","__ZN4rive13ManifestAsset11resolveNameEi","__ZNK4rive15KeyedObjectBase5cloneEv","_rive_hb_buffer_get_replacement_codepoint","_ma_dr_wav_read_pcm_frames_s32be","__ZN4rive4Text4drawEPNS_8RendererE","_ma_mutex_init","__ZN4rive11AudioEngine4stopEPNS_8ArtboardE","_getEventName","_ma_sound_set_stop_time_with_fade_in_pcm_frames","__ZN4rive3gpu22RenderContextMetalImpl25resizeTessellationTextureEjj","_ma_sound_uninit","_rive_hb_font_get_ptem","_rive_hb_buffer_add_codepoints","__ZN4rive20LayoutComponentStyle23heightUnitsValueChangedEv","__ZN4rive16DependencySorter5visitEPNS_9ComponentERNSt3__16vectorIS2_NS3_9allocatorIS2_EEEE","__ZN4rive17BackboardImporter16addDataConverterEPNS_13DataConverterE","__ZN4rive3gpu13RenderContext11decodeImageENS_4SpanIKhEE","_rive_png_read_image","__ZN4rive22TextFollowPathModifier13radialChangedEv","_ma_dr_flac_open_file_and_read_pcm_frames_s32","__ZN4rive3gpu23RenderContextHelperImpl23mapTriangleVertexBufferEm","_hydro_pwhash_derive_static_key","__ZN4rive32DraggableConstraintListenerGroup12processEventEPNS_9ComponentENS_5Vec2DEiNS_12ListenerTypeEbfPNS_20StateMachineInstanceE","__ZN4rive12RiveRendererC2EPNS_3gpu13RenderContextE","_rive_jpeg_idct_12x12","_makeFont","_ma_sound_set_fade_start_in_pcm_frames","_ma_noise_read_pcm_frames","__ZN4rive8KeyFrame6importERNS_11ImportStackE","__ZN4rive11ScriptingVM14registerScriptEPKcNS_4SpanIhEE","_ma_decoder_read_pcm_frames","_rive_hb_face_create","__ZN4rive12BinaryWriter10writeFloatEf","__ZNK4rive3gpu13RenderContext16platformFeaturesEv","__ZNK4rive11NSlicedNode21deformLocalRenderPathERNS_7RawPathERKNS_5Mat2DES5_","__ZNK4rive20StateMachineBoolBase5cloneEv","_lua_clock","__ZN4rive4DashC1Efb","__ZThn176_N4rive8DashPath16createEffectPathEv","__ZN4rive7RawPath7addRectERKNS_4AABBENS_13PathDirectionE","__Z21ma_pcm_interleave_f32PvPPKvyj","_ma_hpf2_get_heap_size","_ma_linear_resampler_get_input_latency","__ZN4rive23LinearAnimationInstance9loopValueEi","_riveArtboardStateMachineNamed","_rive_png_set_expand","_componentSetLocalFromWorld","__ZN4rive20LayoutComponentStyle12interpolatorEv","__ZN4rive15LayoutComponent23fractionalHeightChangedEv","__ZNK4rive24CustomPropertyStringBase5cloneEv","__ZNK4rive31ViewModelInstanceBooleanRuntime5valueEv","_lua_cleartable","__ZNK4rive12TrimPathBase5cloneEv","__ZN4rive20LayoutComponentStyle11flexChangedEv","__ZNK4rive26TransitionTriggerCondition17validateInputTypeEPKNS_17StateMachineInputE","__ZN4rive18ScriptedPathEffect11addPropertyEPNS_14CustomPropertyE","_ma_paged_audio_buffer_seek_to_pcm_frame","_artboardGetFrameOrigin","__ZN4rive21ArtboardComponentList3gapEv","__ZN4rive18ScriptInputTrigger12onAddedCleanEPNS_11CoreContextE","_ma_spatializer_listener_get_channel_map","__ZN4rive13DataConverter18markConverterDirtyEv","__ZN4rive21ScriptedDataConverter15bindFromContextEPNS_11DataContextEPNS_8DataBindE","_rive_hb_shape_full","__ZN4rive16ScrollConstraint10minOffsetYEv","__ZNK11rive_YGNode18getTrailingPaddingE20rive_YGFlexDirectionf","_ma_peak2_process_pcm_frames","_WebPGetColorPalette","__ZN4rive20StateMachineInstance14addToHitLookupEPNS_9ComponentEbRNSt3__113unordered_mapIS2_PNS_11HitDrawableENS3_4hashIS2_EENS3_8equal_toIS2_EENS3_9allocatorINS3_4pairIKS2_S6_EEEEEEPNS_13ListenerGroupEb","_rive_hb_draw_close_path","__ZN4rive19ShapePaintContainer23invalidateStrokeEffectsEv","_inflate_fast","__ZN4rive24ViewModelInstanceTrigger20propertyValueChangedEv","_ma_resampler_config_init","__ZN4rive3gpu13RenderContext15resetContainersEv","__ZNK4rive20BlendStateTransition17exitTimeAnimationEPKNS_10LayerStateE","_rive_jpeg_read_header","__ZN4rive11ElasticEaseC1Eff","__ZThn376_N4rive16ScriptedDrawable10scriptInitEP9lua_State","__ZN4rive4Solo19getActiveChildIndexEv","_ma_dr_mp3_malloc","_artboardDataContext","__ZN4rive20TextValueRunPropertyC2EPNS_4CoreEPNS_20TextValueRunListenerEPNS_22ViewModelInstanceValueEtNS_10SymbolTypeE","__ZN4rive3gpu8Gradient10MakeRadialEfffPKjPKfm","_yogaStyleGetPadding","__Z13my_error_exitP18jpeg_common_struct","_ma_decoder_seek_to_pcm_frame","__ZN4rive12StrokeEffectD2Ev","__ZN4rive16ScrollConstraint14scrollPercentYEv","__ZN4rive19ScriptInputArtboardD1Ev","__ZN4rive15RiveRenderPaintC1Ev","_ma_vfs_info","__ZN4rive3gpu13RenderContext16setResourceSizesENS1_24ResourceAllocationCountsEb","__ZN4rive8Joystick12onAddedCleanEPNS_11CoreContextE","__ZNK4rive4Bone1xEv","__ZNK4rive28ViewModelInstanceEnumRuntime6valuesEv","_ma_channel_map_copy","_png_get_mDCV_fixed","__ZN4rive12CoreUintType11deserializeERNS_12BinaryReaderE","__ZN4rive3gpu8PathDraw21pushAtlasTessellationEPNS0_13RenderContext12LogicalFlushEPjS5_","_png_resolve_file_gamma","_rive_png_get_sCAL_fixed","_ma_sound_group_set_min_distance","_rive_jpeg_CreateDecompress","_hydro_random_buf","_rawTextInputSetParagraphSpacing","_rive_png_get_rgb_to_gray_status","__ZN4rive11ScriptingVMD1Ev","_rive_hb_draw_funcs_create","_rive_YGNodeStyleGetMargin","_rive_hb_ot_layout_table_get_script_tags","_yogaNodeSetBaselineFunc","__ZN4rive12RawTextInput8classifyEj","_ma_spatializer_init","_rive_jcopy_sample_rows","__ZN4rive20StateMachineInstanceC2EPKNS_12StateMachineEPNS_16ArtboardInstanceE","__ZN4rive13ListenerGroup11pointerDataEi","__ZN4rive5Scene4drawEPNS_8RendererE","_ma_lpf1_get_latency","__ZN4rive16ScrollConstraint13contentHeightEv","_ma_dr_wav_init_file_write_sequential_pcm_frames","_ma_device_job_thread_config_init","__ZN4rive21ViewModelInstanceEnum20propertyValueChangedEv","__ZN4rive21ArtboardComponentList11hitTestHostERKNS_5Vec2DEbPNS_16ArtboardInstanceE","__ZNK4rive12RawTextInput4findEhRNS_14CursorPositionEi","_lua_insert","__ZN4rive10KeyFrameId18applyInterpolationEPNS_4CoreEifPKNS_8KeyFrameEf","__ZN4rive7RawPath4quadENS_5Vec2DES1_","_rive_png_get_y_pixels_per_inch","_ma_job_init","__ZN4rive4Text14originXChangedEv","__ZNK4rive24ViewModelInstanceRuntime23getPropertyNameFromPathERKNSt3__112basic_stringIcNS1_11char_traitsIcEENS1_9allocatorIcEEEE","_ma_job_queue_init_preallocated","_rive_png_get_sCAL","__ZN4rive10DrawTarget12onAddedCleanEPNS_11CoreContextE","__ZN4rive15LayoutComponent20flexDirectionChangedEv","__ZN4rive21ArtboardComponentList29updateArtboardsWorldTransformEv","__ZN4rive19SystemStateInstanceC2EPKNS_10LayerStateEPNS_16ArtboardInstanceE","_riveUnlock","_rive_png_set_option","_VP8LConvertBGRAToRGBA_C","__ZN4rive20NestedArtboardLayout5isRowEv","_rive_hb_ot_layout_get_horizontal_baseline_tag_for_script","_rive_jpeg_idct_13x13","_ma_spatializer_listener_is_enabled","__ZN4rive26DataBindContextTargetValue10initializeEPNS_8DataBindE","_rive_png_get_current_row_number","__ZN4rive24ViewModelInstanceRuntimeC2ENS_3rcpINS_17ViewModelInstanceEEE","_WebPDemuxPrevChunk","__ZNK4rive28ViewModelInstanceBooleanBase5cloneEv","__ZN4rive4Skin9addTendonEPNS_6TendonE","__ZNK4rive16BinaryDataReader13lengthInBytesEv","__ZN4rive14CoreDoubleType14deserializeRevERNS_12BinaryReaderE","__ZNK4rive30ViewModelInstanceNumberRuntime5valueEv","__Z12ma_strncat_sPcmPKcm","_ma_vfs_open","_lua_getreadonly","_SBLineGetOffset","_ma_engine_node_config_init","_ma_hpf_get_heap_size","__ZN4rive13ClippingShape17buildDependenciesEv","_deleteRenderBuffer","_trimPathEffectGetEnd","__ZN4rive11KeyedObjectC2Ev","_rive_png_set_unknown_chunk_location","__ZNK4rive13DrawRulesBase5cloneEv","__ZThn8_N4rive23LinearAnimationInstanceD0Ev","_ma_bpf_node_reinit","_rive_hb_shape_plan_create_cached2","__ZN4rive9DrawRules12onAddedDirtyEPNS_11CoreContextE","__ZNK4rive10AudioEvent5cloneEv","_rive_YGNodeStyleGetAspectRatio","__ZN4rive24ForegroundLayoutDrawable4drawEPNS_8RendererE","__ZN4rive6Cursor20resolveLinePositionsERKNS_15FullyShapedTextE","__ZNK4rive24LayoutComponentStyleBase5cloneEv","__ZNK4rive14EntryStateBase5cloneEv","__ZNK4rive14RiveRenderPath9getBoundsEv","_SBParagraphGetOffset","__ZN4rive15StateTransitionD0Ev","_ma_data_source_set_range_in_pcm_frames","__ZNK4rive5Mat2D9translateENS_5Vec2DE","__ZN4rive23StateTransitionImporter7resolveEv","__ZNK4rive10ContourItrdeEv","_rive_png_write_IHDR","_ma_channel_map_is_blank","__ZN4rive3gpu23RenderContextHelperImpl16unmapPaintBufferEm","_componentGetScaleY","__ZNK4rive11NSlicedNode16deformWorldPointENS_5Vec2DE","__ZNK4rive5Image11localBoundsEv","_rive_png_set_gamma_fixed","__ZN4rive16PropertyRecorder24recordStateMachineInputsEPKNS_12StateMachineE","__ZN4rive20StateMachineInstance5resetEv","_deleteRiveFile","__tr_tally","__ZN4rive29ArtboardComponentListOverride19updateWidthOverrideEv","__ZThn2480_N4rive8Artboard6rebindEv","__ZN4rive18NestedStateMachine21bindViewModelInstanceENS_3rcpINS_17ViewModelInstanceEEE","__ZN4rive20LayoutComponentStyle19displayValueChangedEv","_png_do_expand_palette_rgba8_neon","_riveFileAssetSetRenderImage","_rawTextInputSetMaxHeight","__ZN4rive26DataBindContextValueNumber5applyEPNS_4CoreEjb","__ZNK4rive28TransitionViewModelCondition8evaluateEPKNS_20StateMachineInstanceEPNS_25StateMachineLayerInstanceE","__ZNK11rive_YGNode13getGapForAxisE20rive_YGFlexDirectionf","__ZNK4rive23CubicDetachedVertexBase5cloneEv","__ZN4rive12EnumImporter8addValueEPNS_13DataEnumValueE","_hydro_random_buf_deterministic","__ZN4rive20NestedArtboardLayout20updateHeightOverrideEv","_ma_slot_allocator_config_init","_lua_iscfunction","__ZN4rive17ViewModelInstance13propertyValueEj","__ZThn408_N4rive14NestedArtboard16clearDataContextEv","__ZN4rive18DataConverterGroup15bindFromContextEPNS_11DataContextEPNS_8DataBindE","_textValueRunName","__ZN4rive9TextInput6updateENS_13ComponentDirtE","__ZN4rive16BindableArtboardC2ENS_3rcpIKNS_4FileEEENSt3__110unique_ptrINS_16ArtboardInstanceENS5_14default_deleteIS7_EEEE","__ZN4rive20LayoutComponentStyle13maxWidthUnitsEv","_riveFileAssetCdnBaseUrl","__ZN4rive20DataConverterFormula14reverseConvertEPNS_9DataValueEPNS_8DataBindE","__ZN4rive11GroupEffect17invalidateEffectsEv","__ZNK4rive11AudioEngine10sampleRateEv","_rive_jpeg_idct_islow","_rive_jinit_input_controller","__ZN4rive19FileAssetReferencerD1Ev","__ZThn152_N4rive18ScriptInputTriggerD0Ev","_rive_png_get_pHYs_dpi","__ZN4rive17ViewModelImporter11addPropertyEPNS_17ViewModelPropertyE","_rive_png_create_write_struct_2","_ma_data_source_seek_to_second","_rive_png_save_uint_32","_vmiRuntimeGetArtboardProperty","__ZNK4rive21ArtboardComponentList5cloneEv","_ma_dr_wav_get_cursor_in_pcm_frames","_ma_waveform_read_pcm_frames","_rive_png_get_image_width","__ZNK4rive3gpu18GradientContentKeyeqERKS1_","__ZNK4rive15StateTransition25exitTimeAnimationInstanceEPKNS_13StateInstanceE","_rive_hb_ot_layout_language_find_feature","_ma_pulsewave_init","__ZN4rive5Image7hitTestEPNS_7HitInfoERKNS_5Mat2DE","__ZNK4rive17TextInputTextBase5cloneEv","_ma_sound_set_max_gain","_rive_png_set_text_compression_mem_level","__ZN4rive5Scene11pointerDownENS_5Vec2DEi","__ZN4rive20NestedArtboardLayout12layoutBoundsEv","__ZN4rive8TrimPath12onAddedDirtyEPNS_11CoreContextE","_lua_xpush","_ma_dr_wav_u8_to_f32","__ZN4rive28ScriptInputViewModelProperty21validateForScriptInitEv","_ma_node_graph_set_time","_ma_apply_volume_factor_s16","__ZN4rive16ScrollConstraint11initPhysicsEv","_riveArtboardAdvance","__ZN4rive20StateMachineImporter8addInputENSt3__110unique_ptrINS_17StateMachineInputENS1_14default_deleteIS3_EEEE","__ZN4rive14ScriptedObject15markNeedsUpdateEv","__ZN4rive8Drawable8willDrawEv","__ZN4rive7RawPath4moveENS_5Vec2DE","_ma_dr_wav_f32_to_s32","__ZN4rive12RawTextInput6sizingENS_10TextSizingE","__ZN4rive4SkinD1Ev","__ZN4rive24DataConverterRangeMapper4copyERKNS_28DataConverterRangeMapperBaseE","_riveDataBindUpdate","__ZNK4rive11PathMeasure8isClosedEv","_rive_hb_ot_layout_script_select_language","__Z19ma_flac_init_memoryPKvmPK26ma_decoding_backend_configPK23ma_allocation_callbacksP7ma_flac","__ZN4rive13TextStyleAxis12onAddedDirtyEPNS_11CoreContextE","_getCustomPropertyNumber","__ZN4rive12RawTextInput4drawEPNS_7FactoryEPNS_8RendererERKNS_5Mat2DEPNS_11RenderPaintES9_S9_","_yogaNodeClearChildren","__ZN4rive12RenderShaderC1Ev","__ZN4rive10AudioAssetD1Ev","_yogaStyleGetFlex","__ZN4rive4Bone12onAddedCleanEPNS_11CoreContextE","__ZNK4rive19ShapePaintContainer9pathFlagsEv","_rive_hb_aat_layout_has_substitution","_rive_hb_set_add_range","__ZN4rive11RangeMapper8addRangeEjjjj","_WebPCopyDecBuffer","_WebPIoInitFromOptions","__ZNK4rive26ViewModelInstanceAssetBase5cloneEv","_ma_dr_wav_get_length_in_pcm_frames","__ZN4rive20LayoutComponentStyle20gapHorizontalChangedEv","_ma_dr_wav_read_pcm_frames_s16le","__ZN4rive17ViewModelInstance9setAsRootENS_3rcpIS0_EE","_lua_tolstring","__ZNK4rive25CubicEaseInterpolatorBase5cloneEv","__ZN4rive10RenderPathD2Ev","__ZN4rive3gpu22RenderContextMetalImpl26findCompatibleDrawPipelineENS0_8DrawTypeENS0_14ShaderFeaturesERKNS0_15FlushDescriptorENS0_15ShaderMiscFlagsE","_clipPath","_ma_async_notification_event_init","__ZThn376_N4rive21ArtboardComponentList16clearDataContextEv","_createVMIRuntime","_yogaStyleSetDirection","_rive_png_get_PLTE","__ZN4rive18ScriptedPathEffect12onAddedCleanEPNS_11CoreContextE","__ZNK4rive15StateTransition15exitTimeSecondsEPKNS_10LayerStateEb","__ZN4rive3gpu24BackgroundShaderCompilerD2Ev","_renderPathHasBounds","__ZN4rive14NestedArtboard15updateDataBindsEv","__ZNK4rive23TransitionBoolCondition8evaluateEPKNS_20StateMachineInstanceEPNS_25StateMachineLayerInstanceE","__ZNK11rive_YGNode16getLeadingMarginE20rive_YGFlexDirectionf","_setViewModelInstanceArtboardCallback","__ZN4rive20StateMachineInstance11pointerMoveENS_5Vec2DEfi","__ZN4rive3gpu23RenderContextHelperImpl15unmapPathBufferEm","_rive_YGNodeStyleSetFlexBasisAuto","_ma_dr_wav_init_file_ex","__ZN4rive21ArtboardComponentList16syncStyleChangesEv","__ZNK4rive27ViewModelInstanceNumberBase5cloneEv","_animationInstanceGetTime","_ma_linear_resampler_set_rate","_rive_jpeg_idct_8x4","__Z9DecodePngPKhm","__ZN4rive19ElasticInterpolator12onAddedDirtyEPNS_11CoreContextE","__ZThn144_N4rive12TargetEffect15addPathProviderEPNS_12PathProviderE","__ZN4rive19ScriptInputArtboard17artboardIdChangedEv","__ZNK4rive4File23bindableArtboardDefaultEv","_ma_vfs_tell","__ZN4rive22ViewModelInstanceValue17restoreDelegationEv","_lua_tolightuserdatatagged","_ma_resampler_get_expected_output_frame_count","__ZN4rive11NSlicedNode13measureLayoutEfNS_17LayoutMeasureModeEfS1_","__ZN4rive8DataBind11clearSourceEv","_restore","__ZN11rive_YGNode15setLayoutMarginEfi","__ZN4rive4File6importENS_4SpanIKhEEPNS_7FactoryEPNS_12ImportResultENS_3rcpINS_15FileAssetLoaderEEEPv","__ZNK4rive4File15viewModelByNameENSt3__112basic_stringIcNS1_11char_traitsIcEENS1_9allocatorIcEEEE","_ma_sound_start","__ZN4rive21VirtualizingComponent4fromEPNS_9ComponentE","_ma_dr_wav_open_file_and_read_pcm_frames_f32_w","_rawTextRedo","_textValueRunText","__ZN4rive16ArtboardImporter12addAnimationEPNS_15LinearAnimationE","_WebPDecodeARGBInto","_hydro_random_uniform","_ma_sound_group_set_rolloff","_rive_hb_set_get_empty","_hydro_kdf_keygen","__ZN4rive20LayoutComponentStyle12positionTypeEv","__ZNK4rive5Image5cloneEv","__ZNK4rive11OrderedLine22containsCodePointIndexERKNS_11GlyphLookupEj","__ZNK4rive24ClampedScrollPhysicsBase5cloneEv","_rive_YGConfigFree","__ZN4rive5Scene21bindViewModelInstanceENS_3rcpINS_17ViewModelInstanceEEE","_ma_sound_get_pan_mode","__ZN4rive21ArtboardComponentList15disposeListItemERKNS_3rcpINS_25ViewModelInstanceListItemEEE","__ZN4rive20LayoutComponentStyle26justifyContentValueChangedEv","_VP8LConvertBGRAToBGR_C","__ZNK4rive35DataConverterOperationViewModelBase5cloneEv","__ZNK4rive13ManifestAsset13fileExtensionEv","_rive_hb_buffer_pre_allocate","__ZNK4rive31DataConverterOperationValueBase5cloneEv","__ZN4rive18ScriptedEffectPath16invalidateEffectEv","_ma_loshelf2_process_pcm_frames","_hydro_kx_n_2","__ZN4rive20ElasticScrollPhysics5clampENS_5Vec2DES1_S1_","__ZThn376_N4rive24ForegroundLayoutDrawable9worldPathEv","__ZN4rive24ViewModelInstanceTrigger10applyValueEPNS_16DataValueIntegerE","__ZN4rive12RawTextInput7measureEff","__ZN4rive13KeyedProperty6importERNS_11ImportStackE","__ZN4rive28ViewModelInstanceEnumRuntime10valueIndexEj","__ZN4rive7RawText6appendERKNSt3__112basic_stringIcNS1_11char_traitsIcEENS1_9allocatorIcEEEENS_3rcpINS_11RenderPaintEEENSA_INS_4FontEEEfff","_rive_hb_draw_funcs_set_user_data","_lua_setupvalue","_ma_audio_buffer_get_cursor_in_pcm_frames","_VP8LHuffmanTablesDeallocate","_rive_hb_buffer_add_latin1","__ZN4rive4Path17buildDependenciesEv","_ma_rb_commit_read","_rive_jinit_d_post_controller","_deleteFileAsset","_rive_hb_feature_from_string","_hydro_hex2bin","_rive_png_get_pixel_aspect_ratio_fixed","_rive_png_set_swap","__ZNK11rive_YGNode20isTrailingPosDefinedE20rive_YGFlexDirection","__ZN4rive21ArtboardComponentList5resetEv","__ZN4rive9FileAsset11copyCdnUuidERKNS_13FileAssetBaseE","_ma_dr_flac_open_memory_and_read_pcm_frames_s16","__ZN4rive19ScrollBarConstraint12onAddedDirtyEPNS_11CoreContextE","__Z25luaopen_rive_data_contextP9lua_State","__ZN4rive9ViewModel8instanceEm","_VP8StatusMessage","_png_fixed_ITU","__ZN4rive9TextStyle17buildDependenciesEv","__ZN4rive29DataConverterSystemDegsToRads14reverseConvertEPNS_9DataValueEPNS_8DataBindE","__ZN4rive11PathMeasureC1EPKNS_7RawPathEf","_rive_jpeg_input_complete","__ZThn408_N4rive14NestedArtboard6unbindEv","__ZN4rive17ShapePaintMutator16initPaintMutatorEPNS_9ComponentE","__ZN4rive20StateMachineInstance6rebindEv","__ZN4rive16ScrollConstraint14constrainChildEPNS_18LayoutNodeProviderE","_VP8InitIoInternal","__ZN4rive8Joystick11posYChangedEv","__ZN4rive16ArtboardInstance5inputERKNSt3__112basic_stringIcNS1_11char_traitsIcEENS1_9allocatorIcEEEES9_","_luaL_addvalueany","__ZN4rive17BackboardImporter18addMissingArtboardEv","__ZN15WrappedArtboardC1EONSt3__110unique_ptrIN4rive16ArtboardInstanceENS0_14default_deleteIS3_EEEENS2_3rcpINS2_4FileEEE","_audioSourceFormat","_setVMIAssetImageRuntimeValue","__ZN4rive15LayoutComponent6updateENS_13ComponentDirtE","__ZN4rive4Path18canDeferPathUpdateEv","_ma_mutex_lock","__ZN4rive29ViewModelInstanceColorRuntime5alphaEi","__ZThn200_N4rive9TextInput13measureLayoutEfNS_17LayoutMeasureModeEfS1_","_rive_YGNodeStyleSetPadding","__ZN4rive4Path32computeIdealControlPointDistanceERKNS_5Vec2DES3_f","_rive_hb_buffer_get_direction","_rive_png_get_sBIT","_ma_delay_node_set_dry","__ZN4rive3gpu13ImageMeshDrawC2ENS_5TAABBIiEERKNS_5Mat2DENS_9BlendModeENS_3rcpINS0_7TextureEEENS_12ImageSamplerENS8_INS_12RenderBufferEEESD_SD_jf","_createViewModelInstance","__ZN4rive24DataConverterRangeMapper16minOutputChangedEv","_ma_is_loopback_supported","__ZN4rive18TransformComponent12onAddedCleanEPNS_11CoreContextE","__ZN4rive11KeyedObjectD0Ev","__ZN4rive16BinaryDataReader10readStringEv","__ZN4rive19ScriptInputArtboard20referencedArtboardIdEv","__ZN4rive5Scene9pointerUpENS_5Vec2DEi","__ZN4rive4Path8addFlagsENS_9PathFlagsE","__ZNK4rive15LinearAnimation20globalToLocalSecondsEf","_deleteArtboardInstance","__ZN4rive12RawTextInput9backspaceEi","__ZN4rive14RiveRenderPathC1ENS_8FillRuleERNS_7RawPathE","_hydro_pwhash_deterministic","__ZN4rive20BlendState1DInstanceD2Ev","_zlibCompileFlags","__ZN4rive14ShapePaintPath10renderPathEPKNS_9ComponentE","__ZNK4rive4File23createViewModelInstanceEPNS_9ViewModelE","__ZNK6HBFont8isItalicEv","_VP8GetThreadMethod","__ZThn184_N4rive8Joystick13measureLayoutEfNS_17LayoutMeasureModeEfS1_","_WebPDemuxPrevFrame","__ZN4rive14NestedArtboard19copyDataBindPathIdsERKNS_18NestedArtboardBaseE","_ma_sound_get_data_format","__ZN4rive9FontAsset6decodeERNS_11SimpleArrayIhEEPNS_7FactoryE","__ZN4rive13TextStyleAxis10tagChangedEv","__ZNK4rive12TextValueRun10canHitTestEv","__ZNK4rive7RawPath17computeCoarseAreaEv","__ZN4rive13DataConverter6updateEv","__ZN4rive20NestedArtboardLayout31instanceHeightUnitsValueChangedEv","__ZN4rive16ScrollConstraintD0Ev","_ma_noise_set_type","_rive_hb_blob_get_data_writable","__ZN4rive11RangeMapper9fromLinesENS_4SpanIKjEEjjRKNS_11SimpleArrayINS_9ParagraphEEERKNS4_INS4_INS_9GlyphLineEEEEERKNS_11GlyphLookupE","_rive_jpeg_consume_input","_ma_data_source_set_next_callback","__ZN4rive13NestedTrigger4fireERKNS_12CallbackDataE","_rive_hb_unicode_mirroring","_lua_equal","__ZNK4rive22AnimationStateInstance9keepGoingEv","__ZN4rive15LayoutComponent27overridesKeyedInterpolationEi","__ZN4rive16ScrollConstraint3gapEv","_ma_dr_flac_open_file","__ZN4rive16ScriptingContext17tryRegisterModuleEP9lua_StatePNS_13ModuleDetailsE","__ZN4rive3gpu13ImageMeshDraw11releaseRefsEv","__ZN4rive11RenderImageC1ERKNS_5Mat2DE","__ZN4rive16EffectsContainer17invalidateEffectsEPNS_12StrokeEffectE","__ZN4rive20LayoutComponentStyle28layoutHeightScaleTypeChangedEv","_ma_dr_mp3_open_and_read_pcm_frames_f32","_rive_hb_face_set_glyph_count","__ZNK4rive19DataBindContextBase5cloneEv","_luaL_argerrorL","_ma_engine_get_volume","__ZN4rive3gpu15cast_f16_to_f32EDv4_t","_rive_png_write_png","__ZNK4rive14NestedArtboard14nestedArtboardENSt3__112basic_stringIcNS1_11char_traitsIcEENS1_9allocatorIcEEEE","_rive_hb_unicode_funcs_get_parent","_rive_png_destroy_gamma_table","__ZN4rive16DependencySorter4sortEPNS_9ComponentERNSt3__16vectorIS2_NS3_9allocatorIS2_EEEE","__ZN4rive16PropertyRecorder17getCoreObjectDataEj","__ZN4rive20StateMachineInstanceD2Ev","__ZNK4rive12ListPathBase5cloneEv","__ZNK4rive27ScriptedTransitionCondition5cloneEv","__ZN4rive15LayoutComponent20currentAnimationDataEv","__ZNK4rive19RectanglesToContour7contourEm","__ZN4rive14NestedArtboardD0Ev","_rive_hb_shape_plan_set_user_data","_rive_png_muldiv","_ma_audio_buffer_ref_init","_rive_hb_buffer_set_not_found_glyph","__ZN4rive16ArtboardInstance14animationNamedERKNSt3__112basic_stringIcNS1_11char_traitsIcEENS1_9allocatorIcEEEE","__ZN4rive22ViewModelInstanceValue11addDelegateEPNS_30ViewModelInstanceValueDelegateE","__ZNK4rive8Artboard4idOfEPNS_4CoreE","_png_riffle_palette_neon","_ma_lpf_node_config_init","__ZN4rive14ListenerAction6importERNS_11ImportStackE","_rive_png_set_invalid","__ZN4rive21TextInputSelectedText18localClockwisePathEv","__ZN4rive5Image8willDrawEv","_deleteDataContext","__ZNK4rive15StateTransition20useLayerInConditionsEPNS_20StateMachineInstanceEPNS_25StateMachineLayerInstanceE","_rive_YGNodeStyleSetMaxWidthPercent","__ZNK4rive27FormulaTokenParenthesisBase5cloneEv","_rive_hb_font_get_glyph","__ZN4rive18ScriptInputTrigger6importERNS_11ImportStackE","__ZN4rive20LayoutComponentStyle14widthScaleTypeEv","__ZN4rive3gpu13RenderContext12LogicalFlush9pushDrawsEPNSt3__110unique_ptrINS0_4DrawENS0_15DrawReleaseRefsEEEm","_ma_sound_set_looping","__ZN4rive8ListPathD1Ev","__ZN4rive15LayoutComponent16updateRenderPathEv","__ZN4rive7NSlicerC1Ev","__ZN4rive15LayoutComponent12widthChangedEv","__Z21ma_pcm_interleave_s24PvPPKvyj","_rive_png_get_x_offset_inches_fixed","_yogaStyleSetPosition","_ma_delay_node_set_decay","_imageAssetGetWidth","__ZN13rive_facebook4yoga28throwLogicalErrorWithMessageEPKc","_ma_sound_get_positioning","__ZN4rive20DataConverterFormula13applyFunctionERNSt3__16vectorIfNS1_9allocatorIfEEEEii","_artboardParentIsRow","_rive_png_set_text_compression_method","_ma_rb_reset","_rive_hb_ot_layout_feature_get_characters","__ZThn448_N4rive15LayoutComponentD0Ev","_hydro_pwhash_upgrade","_rive_hb_ot_layout_table_find_feature_variations","__ZN13rive_YGConfig9setLoggerEDn","_ma_dr_wav_mulaw_to_s16","_rive_YGNodeStyleGetBorder","_rive_png_set_PLTE","__ZN11rive_YGNode9setConfigEP13rive_YGConfig","_lua_mainthread","_riveFileViewModelCount","__ZNK4rive29DataConverterListToLengthBase5cloneEv","__ZNK13rive_YGConfig9cloneNodeEP11rive_YGNodeS1_iPv","__ZN4rive14GrTriangulator11pathToPolysERKNS_7RawPathEfRKNS_4AABBEPb","__ZN4rive11AudioSourceC2ENS_4SpanIfEEjj","__ZN4rive20LayoutComponentStyle14borderTopUnitsEv","__ZN4rive17TextModifierRange17unitsValueChangedEv","_lua_touserdatatagged","__ZN4rive15LayoutComponent4drawEPNS_8RendererE","_artboardAnimationNamed","__ZThn176_N4rive4Mesh13onAssetLoadedEPNS_11RenderImageE","_rive_YGNodeStyleGetPosition","__ZN4rive18HitTestCommandPath6moveToEff","__ZN4rive4Text6updateENS_13ComponentDirtE","_ma_sound_group_is_spatialization_enabled","_lua_getallocf","_renderImageHeight","__ZNK4rive5Shape18computeLocalBoundsEv","__ZN4rive10DrawTarget12onAddedDirtyEPNS_11CoreContextE","_dashPathInvalidate","__ZN4rive5Shape11pathBuilderEv","__ZN4rive24DataBindContextValueEnum5applyEPNS_4CoreEjb","_disposeYogaStyle","__ZThn448_N4rive16ArtboardInstanceD1Ev","__ZN4rive24ViewModelInstanceRuntimeC1ENS_3rcpINS_17ViewModelInstanceEEE","_hb_buffer_set_random_state","__ZNK4rive27StateMachineFireTriggerBase5cloneEv","__ZNK4rive28ForegroundLayoutDrawableBase5cloneEv","_stateMachineInstancePointerDown","_rive_jpeg_read_raw_data","__ZN4rive14KeyFrameDouble5applyEPNS_4CoreEif","__ZN4rive14LinearGradient13startXChangedEv","__ZN4rive28ViewModelInstanceListRuntime13addInstanceAtEPNS_24ViewModelInstanceRuntimeEi","__Z17luaopen_rive_mathP9lua_State","_vmiRuntimeGetEnumProperty","_rive_hb_set_reference","_ma_lpf1_init_preallocated","_ma_engine_get_time_in_milliseconds","__ZThn416_N4rive9TextInput9textInputERKNSt3__112basic_stringIcNS1_11char_traitsIcEENS1_9allocatorIcEEEE","_stateMachineInstanceTrigger","_rive_YGNodeStyleSetMinHeight","_rive_png_get_pHYs","_updatePaint","__ZN4rive14rive_lua_pcallEP9lua_Stateii","__ZN4rive20LayoutComponentStyle26marginTopUnitsValueChangedEv","_rive_hb_buffer_get_language","__ZN4rive12BinaryReader10readStringEm","__ZN4rive12RawTextInput10selectWordEv","__ZN4rive23LinearAnimationInstance4timeEf","__ZN4rive16ScriptedDrawable15addScriptedDirtENS_13ComponentDirtEb","__Z12ma_strncpy_sPcmPKcm","__ZN4rive20LayoutComponentStyle19positionBottomUnitsEv","_lua_stackdepth","_WebPRescalerExportRowExpand_C","_rive_png_set_cHRM_fixed","_SBCodepointGetMirror","__Z9ma_itoa_siPcmi","__ZN4rive16ClippingShapeEnd14emptyClipCountEv","__ZN4rive3gpu22RenderContextMetalImplD1Ev","__ZNK4rive16ViewModelRuntime21createRuntimeInstanceENS_3rcpINS_17ViewModelInstanceEEE","_rive_png_set_eXIf","__ZN4rive25DataConverterNumberToList10clearItemsEv","_ma_dr_wav_write_pcm_frames_be","__ZNK4rive20StateMachineInstance23currentAnimationByIndexEm","__ZN4rive4SkinD0Ev","_ma_copy_and_apply_volume_and_clip_pcm_frames","_rive_hb_font_get_nominal_glyphs","__Z19ma_atomic_vec3f_setP15ma_atomic_vec3f8ma_vec3f","_animationInstanceGetLocalSeconds","__ZN4rive3gpu22RenderContextMetalImpl21makeUniformBufferRingEm","__ZN4rive8KeyFrame14computeSecondsEi","__ZN4rive21ArtboardComponentList14applyRecordersEPNS_20StateMachineInstanceEPKNS_8ArtboardE","_inflateSyncPoint","__ZThn192_N4rive16ScrollConstraint14constrainChildEPNS_18LayoutNodeProviderE","_hydro_kx_kk_1","_ma_data_converter_get_output_channel_map","_ma_decoder_get_encoding_format","_ma_audio_buffer_init_copy","__ZNK4rive21ScriptInputStringBase5cloneEv","__ZN4rive9TextInput9textInputERKNSt3__112basic_stringIcNS1_11char_traitsIcEENS1_9allocatorIcEEEE","__ZNK4rive26DataConverterGroupItemBase5cloneEv","_stateMachineInstanceName","_ma_bpf2_get_heap_size","__ZN4rive11AudioReader7decoderEv","_bufferedAudioSamples","__ZN4rive22ViewModelInstanceValue7setRootENS_3rcpINS_17ViewModelInstanceEEE","_WebPInitConvertARGBToYUVNEON","__ZN4rive20ScriptedPropertyListD2Ev","_rawTextSetOverflow","_componentSetWorldTransform","__ZN4rive15LayoutComponent13widthOverrideEfib","_ma_bpf_node_config_init","_rive_hb_face_reference_table","_rive_hb_buffer_add_utf32","_rive_jpeg_read_scanlines","__ZN4rive4Star18innerRadiusChangedEv","__ZN4rive14AnimationReset13writeObjectIdEj","_addPathBackwards","__ZN4rive10ImageAsset6decodeERNS_11SimpleArrayIhEEPNS_7FactoryE","__ZN11rive_YGNodeC1EOS_","__ZN4rive16ScriptedPropertyD2Ev","__ZN4rive14TextStylePaintC1Ev","_VP8ParseProba","_ma_copy_and_apply_volume_factor_pcm_frames_s16","_VP8LConvertBGRAToRGB565_C","_rive_png_get_palette_max","_rive_hb_font_set_synthetic_bold","__ZN4rive11PathMeasureC1Ev","__ZN4rive16ScriptedDrawable8willDrawEv","_rive_png_get_IHDR","__ZN4rive14ScriptedLayout11controlSizeENS_5Vec2DENS_15LayoutScaleTypeES2_NS_15LayoutDirectionE","__ZNK4rive8Artboard14parentArtboardEv","_WebPMultRow_C","_lua_setthreaddata","_deflateInit_","__ZN4rive3gpu13RenderContext12LogicalFlush12pushPathDrawEPKNS0_8PathDrawENS0_8DrawTypeENS0_15ShaderMiscFlagsEjj","__ZN4rive20LayoutComponentStyle27marginLeftUnitsValueChangedEv","_lua_newuserdatatagged","_ma_data_source_get_current","__ZNK4rive8SoloBase5cloneEv","_SBAlgorithmRetain","_lua_setlightuserdataname","__ZN4rive8DataBind6sourceEPNS_22ViewModelInstanceValueE","__ZNK4rive14ContourMeasure10getSegmentEffPNS_7RawPathEb","__ZN4rive20DataConverterFormula6unbindEv","__ZN4rive21CubicAsymmetricVertex10computeOutEv","__ZThn424_N4rive14NestedArtboardD0Ev","_ma_pcm_rb_get_subbuffer_stride","__ZN4rive28VertexPropertyListenerSingle10writeValueEv","_rive_jpeg_resync_to_restart","_rive_jpeg_idct_16x8","__ZN4rive17BackboardImporter4fileEPNS_4FileE","__ZN4rive20DataConverterFormula7addDirtENS_13ComponentDirtEb","_rive_hb_ot_metrics_get_position","_rive_png_create_read_struct_2","_rive_hb_unicode_funcs_get_default","_drawImageMesh","__ZN4rive15StateTransition12onAddedCleanEPNS_11CoreContextE","_rive_png_set_sPLT","__ZN4rive10PointsPath13markPathDirtyEb","__ZNK4rive8MeshBase5cloneEv","_ma_loshelf_node_config_init","__ZN4rive25DataConverterNumberToList18viewModelIdChangedEv","__ZN4rive9SMINumberC2EPKNS_18StateMachineNumberEPNS_20StateMachineInstanceE","__ZN4rive20NestedArtboardLayout22markHostingLayoutDirtyEPNS_16ArtboardInstanceE","__ZNK4rive20StateMachineInstance24bindableDataBindToSourceEPNS_16BindablePropertyE","_setViewModelInstanceStringCallback","__ZN4rive17DataBindContainer15deleteDataBindsEv","__ZN4rive19ScriptInputArtboard12onAddedCleanEPNS_11CoreContextE","__ZNK4rive20StateMachineListener6actionEm","__ZN4rive22AnimationStateInstance5applyEPNS_16ArtboardInstanceEf","_ma_bpf2_get_latency","_setGPU","__ZN4rive14DashEffectPath16invalidateEffectEv","__ZN4rive29ViewModelInstanceValueRuntimeD2Ev","_rive_png_image_begin_read_from_file","__ZN4rive15LayoutComponent19clearLayoutChildrenEv","_rive_jcopy_block_row","__ZN4rive20rive_luaErrorHandlerEP9lua_State","__ZThn376_N4rive18TextInputSelection18localClockwisePathEv","__ZN4rive8ListPathD0Ev","__ZNK4rive41TransitionPropertyViewModelComparatorBase5cloneEv","_hydro_kx_keygen","_WebPDecodeBGRAInto","_addRawPathWithTransformClockwise","_deleteStateMachineInstance","__ZN4rive12StateMachine6importERNS_11ImportStackE","__ZN4rive16PropertyRecorder11getObjectIdEPKNS_8ArtboardEPNS_4CoreE","_rive_hb_set_get_population","__Z23ma_flac_get_data_formatP7ma_flacP9ma_formatPjS3_Phm","_VP8InitFrame","_rive_png_write_pCAL","__ZN4rive11GlyphLookup7computeENS_4SpanIKjEERKNS_11SimpleArrayINS_9ParagraphEEE","__ZN4rive19TextVariationHelper17buildDependenciesEv","_WebPDemuxNextChunk","__ZN4rive18ArtboardReferencer12findArtboardEPNS_25ViewModelInstanceArtboardEPNS_8ArtboardEPNS_4FileE","__ZN4rive27VertexPropertyListenerMultiC2EPNS_4CoreEPNS_14VertexListenerEPNS_22ViewModelInstanceValueENSt3__16vectorItNS7_9allocatorItEEEEf","__ZN4rive3gpu13RenderContext12LogicalFlush13pushAtlasBlitEPNS0_8PathDrawEj","_rive_jpeg_destroy_decompress","__ZNK13rive_YGConfig21getEnabledExperimentsEv","_ma_lpf2_get_heap_size","_ma_pcm_s24_to_s32","__ZNK4rive34TransitionValueAssetComparatorBase5cloneEv","_ma_pulsewave_read_pcm_frames","_rive_png_read_data","_ma_dr_wav_read_pcm_frames_f32","_rive_YGNodeStyleGetAlignItems","__ZThn448_N4rive8ArtboardD0Ev","_ma_dr_wav_init_file_with_metadata","__ZN4rive25StateMachineLayerImporter8addStateEPNS_10LayerStateE","__ZN4rive8Artboard19internalDataContextENS_3rcpINS_11DataContextEEE","__ZThn376_N4rive21ArtboardComponentList6unbindEv","__ZNK4rive9FontAsset13fileExtensionEv","__ZN13rive_YGConfig20setCloneNodeCallbackEDn","_ma_engine_listener_get_position","__ZN4rive3gpu8PathDraw38pushEmulatedStrokeCapAsJoinBeforeCubicEPNS0_13RenderContext18TessellationWriterEPKNS_5Vec2DEjj","_ma_sound_get_direction_to_listener","__ZN4rive3gpu13RenderContext12LogicalFlush8pushPathEPKNS0_8PathDrawE","__ZN4rive9SliceMesh10tileRepeatERNSt3__16vectorINS_15SliceMeshVertexENS1_9allocatorIS3_EEEERNS2_ItNS4_ItEEEERKS6_t","_rive_hb_buffer_append","__ZN4rive17StateMachineLayerD2Ev","__ZN4rive17TextSelectionPath14addRoundedPathERKNS_7ContourEfRNS_7RawPathE","__ZThn192_N4rive11GroupEffect12updateEffectEPNS_12PathProviderEPKNS_14ShapePaintPathEPKNS_10ShapePaintE","_ma_dr_wav_u8_to_s16","__ZN4rive29ArtboardComponentListOverride21instanceHeightChangedEv","__ZNK4rive14NestedArtboard5inputENSt3__112basic_stringIcNS1_11char_traitsIcEENS1_9allocatorIcEEEE","_ma_rb_available_write","_rive_png_create_info_struct","_ma_hpf_node_config_init","__ZThn376_N4rive5Shape11pathBuilderEv","__ZN4rive17ScriptedAnimationC1EP9lua_StateNSt3__110unique_ptrINS_23LinearAnimationInstanceENS3_14default_deleteIS5_EEEE","__ZN4rive16ScriptingContext23recordMissingDependencyERKNSt3__112basic_stringIcNS1_11char_traitsIcEENS1_9allocatorIcEEEES9_","__ZN4rive21ArtboardComponentList16artboardInstanceEi","__ZN4rive20LayoutComponentStyle19marginBottomChangedEv","__ZN4rive12RawTextInput10cursorDownEb","_ma_pcm_rb_available_write","__ZN4rive13PointDeformer4fromEPNS_9ComponentE","__ZN4rive24ListFollowPathConstraint18distanceEndChangedEv","__ZN4rive15LayoutComponent16scaleTypeChangedEv","_VP8LPredictor9_C","_rive_hb_shape_plan_reference","_rive_hb_buffer_create","__ZNK4rive14ContourMeasure4dumpEv","__ZN4rive8Renderer5scaleEff","__ZN4rive24DataConverterRangeMapper7convertEPNS_9DataValueEPNS_8DataBindE","__Z8ma_dlsymP6ma_logPvPKc","__ZThn448_N4rive21ArtboardComponentList4sizeEv","__ZN4rive20StateMachineInstance6notifyERKNSt3__16vectorINS_11EventReportENS1_9allocatorIS3_EEEEPNS_14NestedArtboardE","_ma_pcm_rb_pointer_distance","_WebPDemuxDelete","__ZN4rive14CoreStringType14deserializeRevERNS_12BinaryReaderE","_ma_async_notification_signal","__ZN4rive17TextModifierGroup9transformEfRNS_5Mat2DERNS_17TransformGlyphArgE","__ZN4rive20StateMachineInstance19internalDataContextENS_3rcpINS_11DataContextEEE","__ZN4rive16BinaryDataReader8readByteEv","__ZNK4rive12RawTextInput11orderedLineENS_14CursorPositionE","__ZN4rive3gpu22RenderContextMetalImplD2Ev","_ma_sound_get_min_distance","_rive_jpeg_finish_output","_rive_YGConfigIsExperimentalFeatureEnabled","_rive_hb_buffer_set_flags","__ZN4rive21ArtboardComponentList14removeArtboardENS_3rcpINS_25ViewModelInstanceListItemEEE","_inflateValidate","_ma_convert_frames","_artboardAnimationCount","__ZN4rive17TextModifierRange10coverageAtEf","__ZN4rive11OrderedLineC2ERKNS_9ParagraphERKNS_9GlyphLineEfbbPNS_8GlyphRunEf","_ma_rb_seek_write","__ZN4rive27VertexPropertyListenerPointC1EPNS_4CoreEPNS_14VertexListenerEPNS_22ViewModelInstanceValueES6_tt","__ZN4rive3gpu8PathDraw19pushToRenderContextEPNS0_13RenderContext12LogicalFlushEi","_ma_apply_volume_factor_f32","_ma_loshelf_node_init","_rive_YGNodeStyleSetMarginAuto","__ZN4rive11ScriptInput17initScriptedValueEv","_vmiRuntimeGetTriggerProperty","__ZNK4rive26TransitionTriggerCondition8evaluateEPKNS_20StateMachineInstanceEPNS_25StateMachineLayerInstanceE","__ZNK4rive12BlendState1D12makeInstanceEPNS_16ArtboardInstanceE","_ma_node_get_node_graph","_getCustomPropertyString","__Z13ma_vec3f_len28ma_vec3f","__ZN6BitmapC1EjjNS_11PixelFormatENSt3__110unique_ptrIA_KhNS1_14default_deleteIS4_EEEE","__ZNK4rive24ViewModelInstanceRuntime13propertyCountEv","_rive_hb_buffer_clear_contents","_stateMachineInstanceAdvance","__ZN4rive19ScrollBarConstraint10draggablesEv","__ZN4rive21ViewModelInstanceListD2Ev","__ZN4rive11CubicVertex8outPointEv","__ZN4rive20StateMachineInstance17onDataBindChangedEPFvvE","__ZN4rive3gpu22RenderContextMetalImpl22makeRenderPassForDrawsERKNS0_15FlushDescriptorEP23MTLRenderPassDescriptorPU27objcproto16MTLCommandBuffer11objc_objectNS0_15ShaderMiscFlagsE","__ZThn200_N4rive5Image11controlSizeENS_5Vec2DENS_15LayoutScaleTypeES2_NS_15LayoutDirectionE","_png_write_cICP","__ZN4rive20BlendAnimationDirectD2Ev","__ZN4rive20NestedArtboardLayout10layoutNodeEi","_getSoundCompleted","_SBAlgorithmGetBidiTypesPtr","__ZN4rive4Skin6updateENS_13ComponentDirtE","_rive_png_set_bgr","__ZN4rive13ScriptedPaintC2EPNS_7FactoryERKS0_","__ZN4rive3gpu23RenderContextHelperImpl25unmapTessVertexSpanBufferEm","__ZN4rive4Bone17addPeerConstraintEPNS_10ConstraintE","_adler32","_artboardGetRenderTransform","__ZN4rive20NestedArtboardLayout19updateWidthOverrideEv","_SBCodepointGetBidiType","_lua_call","__ZN4rive17TextModifierGroup11modifyShapeERKNS_4TextENS_7TextRunEf","__ZN4rive16ScriptedDrawable12worldToLocalENS_5Vec2DEPS1_","_ma_rb_get_subbuffer_ptr","__ZN4rive7Feather14offsetYChangedEv","_rive_hb_ot_layout_get_size_params","__ZN4rive8Artboard7onDirtyENS_13ComponentDirtE","__ZN4rive3gpu8PathDraw17allocateResourcesEPNS0_13RenderContext12LogicalFlushE","_ma_channel_map_is_valid","__ZN4rive16BinaryDataReader11readFloat32Ev","_rive_jpeg_idct_2x1","__ZNK4rive20StateMachineInstance24bindablePropertyInstanceEPNS_16BindablePropertyE","_lua_yield","_ma_hishelf2_reinit","_ma_log_register_callback","__ZN4rive22TextFollowPathModifier12startChangedEv","__ZNK4rive23CubicInterpolatorSolver4getTEf","__ZN4rive19ScriptInputArtboardD0Ev","_ma_sound_get_min_gain","_rive_YGNodeStyleSetMaxHeight","_getQueue","__ZN4rive8Joystick8yChangedEv","__ZN4rive20LayoutComponentStyle18gapHorizontalUnitsEv","_rawTextGetSizing","__ZNK4rive11NSlicerBase5cloneEv","__ZN4rive16PropertyRecorder28recordStateMachineLayerStateEPKNS_10LayerStateE","__ZN4rive17ScriptedPaintData9pushStyleEP9lua_State","_SBMirrorLocatorCreate","__ZN4rive12RawTextInput14buildTextPathsEPNS_7FactoryE","__ZN4rive19KeyedObjectImporterC2EPNS_11KeyedObjectE","__ZNK4rive15StateTransition7mixTimeEPKNS_10LayerStateE","_ma_bpf_uninit","_rive_YGNodeGetChild","__Z21luaopen_rive_gradientP9lua_State","__ZN4rive21NestedSimpleAnimation7advanceEfb","_rive_hb_unicode_combining_class","__ZN4rive9SliceMeshC1EPNS_7NSlicerE","__ZThn144_N4rive17ScriptInputNumberD1Ev","__ZN4rive14RiveRenderPath6lineToEff","__ZN4rive9TextStyle15fontSizeChangedEv","__ZN4rive11ScriptInputD2Ev","__ZN4rive9SMINumber5valueEf","__ZN4rive28ScriptInputViewModelPropertyD2Ev","_rive_hb_tag_from_string","__ZN4rive20InterpolatorAdvancer20advanceAnimationDataEf","_deleteDashPathEffect","__ZN4rive17ScriptInputStringD2Ev","__ZN4rive21ScriptedDataConverterD0Ev","_ma_delay_set_wet","_SBLineRelease","__ZN4rive19ScrollBarConstraint17buildDependenciesEv","_ma_dr_wav_f64_to_s16","_rive_png_image_write_to_file","__ZN4rive14VertexListener28createSinglePropertyListenerENS_10SymbolTypeE","_rive_png_gamma_16bit_correct","__ZN4rive12RenderBufferD0Ev","__ZNK4rive7RawText5alignEv","__ZNK11rive_YGNode16relativePositionE20rive_YGFlexDirectionf","__ZThn448_N4rive16ArtboardInstanceD0Ev","_SBScriptLocatorRelease","__ZNK4rive14RiveRenderPath20getRawPathMutationIDEv","_ma_sound_get_directional_attenuation_factor","__ZN4rive13KeyedPropertyC1Ev","__ZN4rive9Component18updateCollapsablesEv","__ZN4rive12TextValueRun12onAddedDirtyEPNS_11CoreContextE","__ZN4rive15LayoutComponent9syncStyleEv","__ZNK4rive20StateMachineInstance7hitTestENS_5Vec2DE","__ZN4rive3gpu16StencilClipResetC1EPNS0_13RenderContextEjNS0_12DrawContentsENS1_11ResetActionE","__ZN4rive18ScriptedPathEffect6importERNS_11ImportStackE","_rive_hb_font_funcs_set_glyph_v_origin_func","_rive_hb_face_create_for_tables","_rive_hb_ot_layout_lookup_would_substitute","__ZNK4rive3gpu16IntersectionTile29findMaxIntersectingGroupIndexEDv4_iDv8_s","_ma_engine_get_gain_db","__ZN4rive12colorOpacityEj","__ZN4rive20ScriptedPropertyList10pushLengthEv","_SBScriptLocatorRetain","__ZN4rive14ScriptedObject4fromEPNS_4CoreE","_hydro_unpad","_ma_engine_listener_is_enabled","__ZN4rive8Artboard12onAddedCleanEPNS_11CoreContextE","_rive_jinit_master_decompress","_hydro_kdf_derive_from_key","_ma_paged_audio_buffer_data_free_page","__ZN4rive12RiveRendererC1EPNS_3gpu13RenderContextE","__ZNK4rive12ArtboardBase5cloneEv","_ma_biquad_node_config_init","__ZThn448_N4rive21ArtboardComponentList16addVirtualizableEi","_rawTextGetOverflow","_ma_dr_wav_init_memory_write_sequential_pcm_frames","__ZN4rive16ScriptInputColor12onAddedCleanEPNS_11CoreContextE","__ZN4rive15cubic_subdivideEPKNS_5Vec2DEfPS0_","__ZN11rive_YGNode21cloneChildrenIfNeededEPv","__ZN4rive16ArtboardInstanceC1Ev","_ma_dr_wav_s16_to_f32","_trimPathEffectGetMode","__ZN4rive21ArtboardComponentList12layoutParentEv","__ZN4rive4File25viewModelInstanceListItemENS_3rcpINS_17ViewModelInstanceEEEPNS_8ArtboardE","_rive_png_set_invert_mono","_ma_dr_wav_init_file_with_metadata_w","_freeViewModelInstanceSerializedData","_rive_hb_font_get_variation_glyph","__ZN4rive22ScriptedListenerActionD2Ev","_VP8LPredictor0_C","__ZN4rive15LayoutComponent13gapHorizontalEv","__ZN4rive19ConditionComparison14compareStringsERKNSt3__112basic_stringIcNS1_11char_traitsIcEENS1_9allocatorIcEEEES9_","__ZN4rive5Shape6lengthEv","__ZN4rive17ScriptInputNumberD1Ev","__ZN4rive3gpu13RenderContext12LogicalFlush8pushDrawEPKNS0_4DrawENS0_8DrawTypeENS0_15ShaderMiscFlagsENS0_9PaintTypeEjj","__ZN4rive23StateMachineFireTrigger22decodeViewModelPathIdsENS_4SpanIKhEE","_rive_hb_face_get_index","_ma_bpf2_reinit","_ma_hishelf2_config_init","__ZN4rive3gpu8PathDraw4MakeEPNS0_13RenderContextERKNS_5Mat2DENS_3rcpIKNS_14RiveRenderPathEEENS_8FillRuleEPKNS_15RiveRenderPaintEfPNS_7RawPathE","_ma_delay_node_get_decay","__ZN4rive11NSlicedNode6updateENS_13ComponentDirtE","__ZN4rive11AudioEngine4MakeEjj","_rive_png_chunk_report","_stateMachineInstanceKeyInput","__ZN11rive_YGNode13clearChildrenEv","__ZN4rive12TextValueRun11isHitTargetEb","_ma_context_get_log","_ma_data_converter_set_rate","_ma_spatializer_set_cone","_yogaStyleSetBorder","_rive_hb_font_add_glyph_origin_for_direction","_rive_jpeg_free_large","__ZN4rive20StateMachineInstance17sortHitComponentsEv","__ZN4rive21ViewModelPropertyEnum8dataEnumEv","__ZNK4rive16BlendStateDirect12makeInstanceEPNS_16ArtboardInstanceE","__ZN4rive14LinearGradient7addStopEPNS_12GradientStopE","_ma_sound_group_set_directional_attenuation_factor","__ZNK4rive13BlobAssetBase5cloneEv","_rive_png_data_freer","__ZN4rive3gpu13RenderContext12LogicalFlush14generateClipIDERKNS_5TAABBIiEE","_rive_png_gamma_8bit_correct","_ma_dr_flac_open_file_and_read_pcm_frames_f32","__ZN4rive10Constraint17buildDependenciesEv","__ZN4rive11AudioSourceC2ENS_4SpanIhEE","__Z24ma_wav_seek_to_pcm_frameP6ma_wavy","__ZN11rive_YGNode20setLayoutHadOverflowEb","__ZN4rive14NestedArtboard6unbindEv","_lua_setfenv","_makeFlutterRenderImage","__ZN4rive11RangeMapper5clearEv","__ZN4rive12RawTextInput14setTextPrivateENSt3__112basic_stringIcNS1_11char_traitsIcEENS1_9allocatorIcEEEE","__ZNK4rive14AudioAssetBase5cloneEv","__ZThn192_N4rive11GroupEffect15addPathProviderEPNS_12PathProviderE","_WebPGetFeaturesInternal","__ZThn56_N4rive20StateMachineInstanceD1Ev","__ZNK4rive21TextModifierRangeBase5cloneEv","__ZN4rive15LayoutComponent25setInheritedInterpolationENS_24LayoutStyleInterpolationEPNS_20KeyFrameInterpolatorEf","__ZN4rive15LayoutComponentD1Ev","_ma_device_start","__ZN4rive7RawText6boundsEv","_WebPYuv444ToBgra_C","__ZN4rive28ViewModelInstanceListRuntime10instanceAtEi","__ZN4rive23LinearAnimationInstance7advanceEfPNS_21KeyedCallbackReporterE","_deflatePending","_artboardWidthOverride","__ZN4rive13ScriptedPaintC1EPNS_7FactoryE","__ZN4rive20InterpolatorAdvancer7disposeEv","__ZN13rive_YGConfig10setContextEPv","__ZN4rive23StateTransitionImporter12addConditionEPNS_19TransitionConditionE","__ZN4rive5ShapeC2Ev","_setViewModelInstanceBooleanValue","_ma_sound_get_direction","_zError","_rive_hb_face_collect_nominal_glyph_mapping","_ma_hpf2_init","_ma_spatializer_set_velocity","__ZN4rive14RiveRenderPath5closeEv","_ma_copy_and_apply_volume_factor_s24","_rive_hb_shape_plan_execute","_ma_lpf_init_preallocated","__ZN13rive_facebook4yoga24LayoutPassReasonToStringENS0_16LayoutPassReasonE","_ma_dr_flac_open_memory_with_metadata","__ZN11rive_YGNode26setLayoutComputedFlexBasisE20rive_YGFloatOptional","__ZThn376_N4rive24ForegroundLayoutDrawable11pathBuilderEv","__ZN4rive20ElasticScrollPhysics3runENS_5Vec2DES1_S1_NSt3__16vectorIS1_NS2_9allocatorIS1_EEEEff","__ZN4rive13ManifestAsset11resolvePathEi","_lua_pushvector2","_lua_pushfstringL","__ZN4rive12TextValueRun10addHitRectERKNS_4AABBE","__ZN11rive_YGNodeC2EP13rive_YGConfig","_VP8DecodeMB","__ZN4rive21ArtboardComponentListD2Ev","_ma_spatializer_get_min_distance","__ZNK4rive30ViewModelInstanceViewModelBase5cloneEv","_WebPAllocateDecBuffer","__ZNK4rive13BackboardBase5cloneEv","__ZN4rive26ViewModelInstanceViewModel7setRootENS_3rcpINS_17ViewModelInstanceEEE","__ZN4rive7Polygon11vertexCountEv","_riveArtboardStateMachineDefault","__ZN4rive10LayerStateD1Ev","__ZN4rive12StateMachine12onAddedDirtyEPNS_11CoreContextE","__ZN4rive21ArtboardComponentList19layoutBoundsForNodeEi","_rive_hb_ot_var_find_axis_info","__ZN4rive7PolygonC1Ev","__ZNK4rive8Artboard6boundsEv","__ZN4rive9GlyphLine10BreakLinesENS_4SpanIKNS_8GlyphRunEEEf","__ZN4rive10PathDasher4dashEPNS_14ShapePaintPathEPKNS_7RawPathEPNS_11PathMeasureEPNS_4DashENS_4SpanIS9_EE","__ZN4rive22ScriptedPropertyString8setValueERKNSt3__112basic_stringIcNS1_11char_traitsIcEENS1_9allocatorIcEEEE","__ZN4rive17DataBindContainer15updateDataBindsEb","__ZN4rive12RawTextInput8maxWidthEf","__ZN4rive20ScriptedPropertyList12valueChangedEv","_rive_png_read_rows","__ZN4rive14GrTriangulator4PolyC1EPNS0_6VertexEi","_ma_data_source_set_looping","__ZN4rive26CubicInterpolatorComponent12onAddedDirtyEPNS_11CoreContextE","__ZN4rive22CubicValueInterpolator12onAddedDirtyEPNS_11CoreContextE","_VP8LConvertFromBGRA","__ZN4rive24ForegroundLayoutDrawable11pathBuilderEv","_rive_hb_font_funcs_is_immutable","__ZN4rive12TargetEffect10effectPathEPNS_12PathProviderE","__ZN4rive16ScrollConstraint11scrollIndexEv","_ma_sound_group_set_position","_ma_channel_converter_uninit","__ZN4rive21ArtboardComponentList16removeArtboardAtEi","_get_crc_table","_ma_engine_listener_set_cone","__Z15rive_YGFloatMinff","__ZN4rive16ArtboardInstance17stateMachineNamedERKNSt3__112basic_stringIcNS1_11char_traitsIcEENS1_9allocatorIcEEEE","__ZNK4rive19ListenerAlignTarget7performEPNS_20StateMachineInstanceENS_5Vec2DES3_i","_hydro_pwhash_keygen","_yogaStyleSetJustifyContent","__ZN4rive21KeyedPropertyImporterC2EPNS_15LinearAnimationEPNS_13KeyedPropertyE","_rive_hb_buffer_reverse","_lua_setuserdatametatable","_ma_dr_flac_open_memory_and_read_pcm_frames_s32","_rawTextCursorPath","__ZN4rive12TargetEffect16createEffectPathEv","__ZNK4rive8SkinBase5cloneEv","_ma_hpf_node_uninit","__ZN4rive11AudioSource15MakeAudioSourceENS_11SimpleArrayIhEE","_ma_spatializer_get_heap_size","_rive_jpeg_idct_float","__Z32ma_flac_get_cursor_in_pcm_framesP7ma_flacPy","_ma_sound_group_start","__ZN4rive18LayerStateImporter7resolveEv","__ZN4rive10AudioSound7disposeEv","__ZN4rive17ViewModelImporterC1EPNS_9ViewModelE","_rive_png_reciprocal","_rive_png_set_swap_alpha","__ZN4rive15LinearAnimationD1Ev","_rive_YGNodeGetParent","__ZNK4rive14GrTriangulator16makeSortedVertexERKNS_5Vec2DEhPNS0_10VertexListEPNS0_6VertexERKNS0_10ComparatorE","__ZN4rive16ArtboardInstance11animationAtEm","__ZN11rive_YGNode16computeColumnGapERKN13rive_facebook4yoga6detail6ValuesILm3EEENS2_12CompactValueE","__ZN4rive17BackboardImporter26addDataConverterReferencerEPNS_8DataBindE","__ZN4rive8DashPath11parentPaintEv","__ZNK4rive24ViewModelInstanceRuntime25viewModelInstancePropertyERKNSt3__112basic_stringIcNS1_11char_traitsIcEENS1_9allocatorIcEEEE","__ZN4rive17CubicInterpolator10initializeEv","_rive_png_set_tRNS_to_alpha","__ZN4rive20LayoutComponentStyle30paddingBottomUnitsValueChangedEv","_riveArtboardGetOriginalWidth","_rive_YGNodeStyleSetBorder","__ZNK4rive21ArtboardComponentList12findArtboardERKNS_3rcpINS_25ViewModelInstanceListItemEEE","__ZN4rive21ScriptedDataConverter19disposeScriptInputsEv","__ZN4rive22ScriptedPropertyStringC1EP9lua_StateNS_3rcpINS_23ViewModelInstanceStringEEE","_rive_hb_ot_layout_has_positioning","__ZThn144_N4rive17ScriptInputNumberD0Ev","_luaL_optnumber","_WebPRescalerExportRowShrink_C","__ZN4rive21ScriptedDataConverter15applyConversionEPNS_9DataValueERKNSt3__112basic_stringIcNS3_11char_traitsIcEENS3_9allocatorIcEEEE","__ZNK4rive9TextStyle18updateVariableFontEv","__ZN4rive19RectanglesToContour19subdivideRectanglesEv","_ma_pcm_s16_to_s24","_rive_hb_buffer_allocation_successful","_rive_YGConfigCopy","_WebPCopyPixels","__ZN4rive25DataBindContextValueColor5applyEPNS_4CoreEjb","_rive_png_set_alpha_mode","_rive_png_write_find_filter","__ZN4rive20NestedArtboardLayout19markLayoutNodeDirtyEb","_ma_data_source_get_loop_point_in_pcm_frames","_WebPSafeMalloc","_ma_spinlock_lock_noyield","__ZN4rive20LayoutComponentStyle14justifyContentEv","_ma_sound_group_get_velocity","_ma_dr_flac_open_and_read_pcm_frames_f32","_numChannels","_rive_jpeg_get_small","__ZN4rive7NSlicer12onAddedDirtyEPNS_11CoreContextE","_ma_pcm_rb_init_ex","__ZN4rive3gpu13RenderContext12LogicalFlush19getWritableClipInfoEj","__ZNK4rive19ScaleConstraintBase5cloneEv","__ZThn456_N4rive16ScriptedDrawable16advanceComponentEfNS_12AdvanceFlagsE","__ZN4rive10Constraint19markConstraintDirtyEv","_rive_hb_font_set_scale","_rive_jpeg_idct_14x14","__ZN4rive22ScriptedObjectImporterC1EPNS_14ScriptedObjectE","__ZNK4rive11PolygonBase5cloneEv","__ZN17FlutterRenderPathD1Ev","__ZN4rive8TrimPath13offsetChangedEv","__ZN4rive13NestedTrigger10applyValueEv","__ZThn200_N4rive5Image13measureLayoutEfNS_17LayoutMeasureModeEfS1_","_ma_dr_flac_open_memory_and_read_pcm_frames_f32","__ZN4rive17ScriptedPaintDataC2Ev","__Z11ma_strcat_sPcmPKc","__ZN4rive3gpu13ImageRectDrawC1EPNS0_13RenderContextENS_5TAABBIiEERKNS_5Mat2DENS_9BlendModeENS_3rcpINS0_7TextureEEENS_12ImageSamplerEf","__ZN4rive17StateMachineLayerD0Ev","_rive_png_malloc_default","_ma_hishelf2_get_heap_size","_lua_getfenv","__ZN4rive15LinearAnimationD0Ev","_ma_decoder_get_data_format","_rive_png_get_pixels_per_inch","_ma_dr_wav_version","_ma_biquad_init_preallocated","__ZN4rive14VertexListener16createPropertiesEv","__ZNK4rive24ViewModelInstanceRuntime4nameEv","_yogaNodeGetPadding","__ZN4rive21ArtboardComponentList8itemSizeEi","__ZN4rive19ScriptAssetImporter19onFileAssetContentsENSt3__110unique_ptrINS_17FileAssetContentsENS1_14default_deleteIS3_EEEE","__ZNK4rive15LayoutComponent18styleDisplayHiddenEv","_ma_sound_group_get_listener_index","__ZN4rive21AnimationResetFactory11getInstanceEv","__ZN4rive9RectangleC1Ev","_rive_hb_font_funcs_set_glyph_h_origin_func","__ZN4rive11ScriptingVM16unregisterModuleEP9lua_StatePKc","__ZN4rive8DashPath12updateEffectEPNS_12PathProviderEPKNS_14ShapePaintPathEPKNS_10ShapePaintE","_ma_dr_wav_read_pcm_frames_s16","__ZN4rive18DataConverterGroup14reverseConvertEPNS_9DataValueEPNS_8DataBindE","_inflateGetDictionary","__ZN4rive17FileAssetImporterC1EPNS_9FileAssetENS_3rcpINS_15FileAssetLoaderEEEPNS_7FactoryE","__ZN4rive20LayoutComponentStyle14maxHeightUnitsEv","__Z16ma_vec3f_init_3ffff","__ZNK4rive25CubicAsymmetricVertexBase5cloneEv","_rive_hb_ot_var_named_instance_get_postscript_name_id","__ZN4rive4Star6updateENS_13ComponentDirtE","__ZN4rive4File5assetEm","__ZNK4rive24ViewModelInstanceRuntime14propertyStringERKNSt3__112basic_stringIcNS1_11char_traitsIcEENS1_9allocatorIcEEEE","_artboardAddedToHost","_artboardClearDataContext","_SBScriptGetOpenTypeTag","__ZN4rive8Joystick8xChangedEv","__ZN4rive20StateMachineImporter11addDataBindENSt3__110unique_ptrINS_8DataBindENS1_14default_deleteIS3_EEEE","_hb_face_create_from_file_or_fail","__ZN4rive9TextInput22selectionRadiusChangedEv","__ZN4rive11GroupEffect11parentPaintEv","__ZN4rive11AudioReader4readEy","__ZN4rive20LayoutComponentStyle29marginBottomUnitsValueChangedEv","__ZN4rive14ScriptedLayout13measureLayoutEfNS_17LayoutMeasureModeEfS1_","__ZN4rive22TextFollowPathModifier12onAddedCleanEPNS_11CoreContextE","__ZNK4rive24ViewModelInstanceRuntime12propertyListERKNSt3__112basic_stringIcNS1_11char_traitsIcEENS1_9allocatorIcEEEE","_VP8LNew","__ZN4rive19FileAssetReferencer8setAssetENS_3rcpINS_9FileAssetEEE","_rive_hb_font_funcs_set_font_h_extents_func","_rive_YGNodeStyleGetGap","__ZN4rive4Text14markShapeDirtyEb","_rive_hb_font_funcs_set_nominal_glyphs_func","_rive_png_get_gAMA","_riveDataBindUpdateSourceBinding","__ZN4rive19ScrollBarConstraint18computedThumbWidthEv","__ZN4rive10BlendStateD0Ev","__ZN4rive22AnimationStateInstance7advanceEfPNS_20StateMachineInstanceE","__ZNK4rive7RawText9maxHeightEv","_VP8ParseQuant","_ma_pcm_rb_acquire_write","_rive_png_info_init_3","__ZN4rive20LayoutComponentStyle19borderBottomChangedEv","__ZN4rive19ScriptInputArtboard14updateArtboardEPNS_25ViewModelInstanceArtboardE","__Z23ma_pcm_deinterleave_f32PPvPKvyj","_componentSetRotation","__ZN11rive_YGNode15setLayoutBorderEfi","__ZN4rive21ScriptedDataConverter14reverseConvertEPNS_9DataValueEPNS_8DataBindE","__ZNK13rive_YGConfig9hasErrataE13rive_YGErrata","__ZN4rive14GrTriangulator8EdgeList6insertEPNS0_4EdgeES3_","_ma_channel_map_contains_channel_position","_ma_decoder_init_vfs","_WebPInitSamplers","__ZN4rive26DataConverterGroupImporterC2EPNS_18DataConverterGroupE","__ZN4rive7RawTextC2EPNS_7FactoryE","__ZN4rive24BindablePropertyImporterC1EPNS_16BindablePropertyE","__ZN4rive14NestedArtboard21clearNestedAnimationsEv","__ZN4rive9colorBlueEj","_rawTextInputMeasure","__ZN4rive11RangeMapper9fromWordsENS_4SpanIKjEEjj","__ZN4rive16ScriptedRenderer3endEv","__ZN4rive15LayoutComponent18localClockwisePathEv","_rive_hb_set_get_max","__ZN4rive4Path12onAddedCleanEPNS_11CoreContextE","_setViewModelInstanceTriggerCallback","__ZN4rive21ArtboardComponentList26linkStateMachineToArtboardEPNS_20StateMachineInstanceEPNS_16ArtboardInstanceE","__ZN4rive22TextFollowPathModifier6updateENS_13ComponentDirtE","_ma_delay_node_uninit","_ma_spatializer_set_max_distance","__ZNK4rive8Artboard13isTranslucentEv","__ZNK4rive22CustomPropertyEnumBase5cloneEv","_rive_png_read_row","_ma_convert_frames_ex","__ZThn448_N4rive21ArtboardComponentList8itemSizeEi","__ZNK4rive24ViewModelInstanceRuntime10propertiesEv","_ma_offset_pcm_frames_ptr","__ZN4rive25DataBindContextValueColorC1EPNS_8DataBindE","__ZN4rive14LinearGradient13startYChangedEv","__ZN4rive15LayoutComponent20markLayoutStyleDirtyEv","__ZN4rive9Rectangle21cornerRadiusTRChangedEv","_rive_png_set_filter_heuristics_fixed","__ZN4rive19CubicMirroredVertex15distanceChangedEv","_ma_job_queue_uninit","_ma_copy_and_apply_volume_and_clip_samples_u8","__ZN4rive7RawPath11quadToCubicEffff","_ma_lpf_init","__ZNK4rive25ViewModelPropertyEnumBase5cloneEv","__ZThn168_N4rive21ScriptedDataConverterD0Ev","__ZNK4rive14GrTriangulator19mergeCollinearEdgesEPNS0_4EdgeEPNS0_8EdgeListEPPNS0_6VertexERKNS0_10ComparatorE","__ZN4rive3gpu4Draw11releaseRefsEv","_rive_png_warning","__ZN4rive11AudioEngine12timeInFramesEv","__ZN4rive12RiveRenderer11ClipElementD2Ev","__ZN4rive19TransformConstraint14constrainWorldEPNS_18TransformComponentENS_5Mat2DENS_19TransformComponentsES3_S4_f","__ZN4rive19TransitionCondition12onAddedDirtyEPNS_11CoreContextE","__ZN4rive15StateTransition12onAddedDirtyEPNS_11CoreContextE","_ma_gainer_init_preallocated","_rive_hb_ot_layout_feature_get_lookups","__ZN4rive17ScriptInputString6importERNS_11ImportStackE","__Z32ma_flac_get_length_in_pcm_framesP7ma_flacPy","_ma_sound_group_get_time_in_pcm_frames","__ZN4rive18NestedStateMachine16clearDataContextEv","__ZN4rive26ViewModelInstanceViewModelD2Ev","__ZN4rive14VertexListenerC1EPNS_6VertexENS_3rcpINS_17ViewModelInstanceEEEPNS_4PathE","_ma_spatializer_get_min_gain","_yogaStyleSetPadding","_rive_png_default_read_data","__ZN4rive20StateMachineListenerD2Ev","_ma_slot_allocator_init_preallocated","__ZN4rive17ScriptedPaintData7pushCapEP9lua_State","_rawTextInputSetFont","_VP8LBitReaderSetBuffer","__ZN4rive3gpu24GetShaderFeatureGLSLNameENS0_14ShaderFeaturesE","_ma_audio_buffer_ref_get_cursor_in_pcm_frames","_stateMachineInputType","_rive_hb_face_is_immutable","__ZNK4rive21ListenerFireEventBase5cloneEv","__ZNK4rive24ViewModelInstanceRuntime15propertyBooleanERKNSt3__112basic_stringIcNS1_11char_traitsIcEENS1_9allocatorIcEEEE","_ma_dr_wav_read_pcm_frames_f32be","__ZN4rive14ShapePaintPathC2Eb","_ma_duplex_rb_uninit","_rive_png_set_quantize","_inflateCodesUsed","__ZN4rive12FormulaToken11addDataBindEPNS_8DataBindE","_ma_dr_wav_target_write_size_bytes","_rive_png_convert_to_rfc1123","__ZN4rive3gpu13RenderContextD1Ev","_rive_png_zstream_error","__ZN4rive15ScriptedContextC1EPNS_14ScriptedObjectE","__ZN4rive25StateMachineLayerImporter14readNullObjectEv","__ZThn408_N4rive14NestedArtboard19internalDataContextENS_3rcpINS_11DataContextEEE","_VP8CheckSignature","__ZN4rive15DataBindContext17copySourcePathIdsERKNS_19DataBindContextBaseE","__ZN4rive23LinearAnimationImporterC2EPNS_15LinearAnimationE","_rive_YGNodeStyleSetFlex","__Z18ma_vec3f_normalize8ma_vec3f","__ZN4rive12StateMachine11addDataBindENSt3__110unique_ptrINS_8DataBindENS1_14default_deleteIS3_EEEE","_ma_delay_init","__ZN4rive4Text18sizingValueChangedEv","_rive_hb_blob_make_immutable","__ZN4rive20StateMachineInstance19advancedDataContextEv","__ZN4rive10ShapePaint15initRenderPaintEPNS_17ShapePaintMutatorE","__ZN4rive8DataEnumD1Ev","__ZN4rive8Joystick13heightChangedEv","_png_set_cLLI","_ma_slot_allocator_get_heap_size","__ZNK4rive9TextInput11localBoundsEv","__ZN4rive4Text20overflowValueChangedEv","__ZN4rive22ViewportDraggableProxy7endDragENS_5Vec2DEf","__ZN4rive15LayoutComponent30widthIntrinsicallySizeOverrideEb","__ZN4rive16ScriptedArtboard9animationEP9lua_StatePKc","_getVMIColorRuntimeValue","__ZN4rive17ViewModelImporterC2EPNS_9ViewModelE","__ZNK4rive8Artboard18stateMachineNameAtEm","_WebPRescalerInit","__ZNK4rive21ContourMeshVertexBase5cloneEv","_ma_audio_buffer_ref_get_available_frames","_sampleRate","_rive_YGNodeSetContext","_ma_sound_set_velocity","_luaL_tolstring","_luaL_optboolean","__ZN4rive22ScriptedPropertyNumber9pushValueEv","_rive_hb_direction_to_string","_rive_png_set_background_fixed","__ZN4rive28TransitionViewModelConditionD1Ev","_deleteFlutterFactory","_rive_png_convert_from_time_t","__ZN4rive23ListenerViewModelChange6importERNS_11ImportStackE","_SBMirrorLocatorRetain","_rive_jpeg_idct_2x2","__ZN4rive21ArtboardComponentList13addArtboardAtENSt3__110unique_ptrINS_16ArtboardInstanceENS1_14default_deleteIS3_EEEEi","__ZN11rive_YGNode12replaceChildEPS_S0_","_SBAlgorithmGetParagraphBoundary","__ZN4rive21ArtboardComponentList12worldToLocalENS_5Vec2DEPS1_i","__ZNK4rive4Path9buildPathERNS_7RawPathE","__ZN4rive3gpu8PathDrawC1ENS_5TAABBIiEERKNS_5Mat2DENS_3rcpIKNS_14RiveRenderPathEEENS_8FillRuleEPKNS_15RiveRenderPaintEfNS1_12CoverageTypeERKNS0_13RenderContext15FrameDescriptorE","__ZN4rive8Artboard22markHostTransformDirtyEv","__ZN4rive13DrawableProxy14isTargetOpaqueEv","__ZN4rive14ShapePaintPathC2EbNS_8FillRuleE","__ZN4rive3gpu13RenderContext12LogicalFlush29pushInteriorTriangulationDrawEPKNS0_8PathDrawEjNS0_12WindingFacesENS0_15ShaderMiscFlagsE","__ZN4rive22ViewModelInstanceValue7addDirtENS_13ComponentDirtE","__ZThn408_N4rive9TextInput14markShapeDirtyEv","__ZN4rive8Renderer9translateEff","_rive_jpeg_idct_6x3","__ZN4rive11KeyedObject16addKeyedPropertyENSt3__110unique_ptrINS_13KeyedPropertyENS1_14default_deleteIS3_EEEE","_yogaStyleGetFlexShrink","__ZN4rive15ContourPointItrppEv","_convertStringToNumber","__ZNK6HBFont8hasGlyphEj","_riveFileDefaultArtboardViewModelRuntime","_getVMIStringRuntimeValue","__ZN4rive20LayoutComponentStyle27paddingTopUnitsValueChangedEv","__ZN4rive20LayoutComponentStyle20positionRightChangedEv","_rive_YGConfigGetPointScaleFactor","__ZNK4rive11OrderedLine19firstCodePointIndexERKNS_11GlyphLookupE","__ZN4rive27VertexPropertyListenerPoint10writeValueEv","__ZN4rive8Joystick17buildDependenciesEv","__ZThn424_N4rive4Text14markShapeDirtyEv","__ZNK4rive22StateMachineNumberBase5cloneEv","__ZNK4rive12DataBindBase5cloneEv","__ZNK4rive4File21bindableArtboardNamedENSt3__112basic_stringIcNS1_11char_traitsIcEENS1_9allocatorIcEEEE","_ma_hpf_init","__Z23ma_pcm_deinterleave_s32PPvPKvyj","_rive_png_save_int_32","_rive_hb_script_from_iso15924_tag","_ma_hpf2_reinit","__ZN4rive14NestedArtboard21decodeDataBindPathIdsENS_4SpanIKhEE","_WebPDemuxNextFrame","_ma_dr_wav_init_memory_with_metadata","__ZN4rive4Text14markPaintDirtyEv","_init","__ZNK4rive21BlendState1DInputBase5cloneEv","_riveArtboardSetOpacity","_VP8New","__ZN4rive16PropertyRecorder18writePropertyValueEbRNS_18VectorBinaryWriterE","__ZThn456_N4rive15LayoutComponent19markLayoutNodeDirtyEb","__ZN4rive5Image4drawEPNS_8RendererE","__ZThn144_N4rive16ScriptInputColorD0Ev","__ZNK4rive25BindablePropertyAssetBase5cloneEv","__ZN4rive12CoreUintType14deserializeRevERNS_12BinaryReaderE","_artboardStateMachineCount","__Z17ma_flac_init_filePKcPK26ma_decoding_backend_configPK23ma_allocation_callbacksP7ma_flac","_rive_hb_language_matches","__ZN4rive14GrTriangulator8SortMeshEPNS0_10VertexListERKNS0_10ComparatorE","__ZNK4rive23ScriptInputArtboardBase5cloneEv","__ZN4rive20ScriptedPropertyEnum9pushValueEv","__ZThn376_N4rive21ArtboardComponentList21bindViewModelInstanceENS_3rcpINS_17ViewModelInstanceEEENS1_INS_11DataContextEEE","__ZNK4rive28ViewModelInstanceListRuntime4sizeEv","_ma_decode_memory","__ZNK4rive15LinearAnimation9startTimeEv","_lua_costatus","_ma_engine_stop","__ZN4rive3gpu23RenderContextHelperImpl20resizeGradSpanBufferEm","_rawTextSetAlign","_rive_hb_font_set_face","__ZNK4rive13AnimationBase5cloneEv","_ma_sound_group_set_pinned_listener_index","__ZN4rive10BlendStateD1Ev","__ZN4rive20ScriptReffedArtboardC1ENS_3rcpINS_4FileEEEONSt3__110unique_ptrINS_16ArtboardInstanceENS4_14default_deleteIS6_EEEE","__ZNK4rive14NestedArtboard12stateMachineENSt3__112basic_stringIcNS1_11char_traitsIcEENS1_9allocatorIcEEEE","_rive_hb_face_get_user_data","_stateMachineInstanceNumber","_rive_hb_version_string","_inflatePrime","__ZNK4rive17TextModifierGroup13textComponentEv","_rive_png_write_sPLT","__ZNK4rive15LinearAnimation7endTimeEv","_ma_linear_resampler_config_init","_rive_jinit_inverse_dct","_ma_node_graph_get_endpoint","_riveArtboardUpdatePass","__ZN4rive20LayoutComponentStyle24alignContentValueChangedEv","_rive_png_get_compression_type","_SBAlgorithmRelease","__ZN4rive12PathComposerC1EPNS_5ShapeE","__ZN4rive11AudioSource10makeReaderEjj","_rive_YGNodeReset","__ZN4rive16BinaryDataReader8completeEPhm","_rive_png_write_start_row","__ZN4rive17FileAssetContents6importERNS_11ImportStackE","__ZNK4rive17NestedTriggerBase5cloneEv","__ZN4rive20LayoutComponentStyle29positionLeftUnitsValueChangedEv","_rawTextInputGetMaxWidth","__ZN4rive18ScriptedPathEffect12updateEffectEPNS_12PathProviderEPKNS_14ShapePaintPathEPKNS_10ShapePaintE","__ZN4rive17ScriptInputStringD1Ev","_renderPathBounds","_ma_device_stop","_ma_noise_set_seed","_ma_pcm_s32_to_f32","_rive_hb_set_previous","__ZN4rive18TextInputSelection18localClockwisePathEv","__ZN4rive15RiveRenderPaintD1Ev","__ZN4rive17DataBindContainer14updateDataBindEPNS_8DataBindEb","_rive_YGNodeFree","_lua_isnumber","_rive_YGNodeStyleSetFlexDirection","__ZN4rive24path_verb_to_point_countENS_8PathVerbE","__ZN4rive16ViewModelRuntimeC1EPNS_9ViewModelEPKNS_4FileE","_lua_concat","_VP8LoadFinalBytes","__ZN4rive11ScriptAsset18initScriptedObjectEPNS_14ScriptedObjectE","_hydro_kx_nk_1","__ZN4rive17ScriptedDataValueD0Ev","_WebPRescalerExportRow","__ZN15WrappedDataBindC2EPN4rive8DataBindE","__ZN4rive18HitTestCommandPath6lineToEff","__ZNK4rive19TextInputCursorBase5cloneEv","__ZN4rive19CubicDetachedVertex17inRotationChangedEv","_rive_hb_ot_shape_glyphs_closure","_rive_hb_font_subtract_glyph_origin_for_direction","__ZN4rive30DataBindContextValueAssetImage9fileAssetEv","__ZNK6HBFont11onShapeTextEN4rive4SpanIKjEENS1_IKNS0_7TextRunEEEi","_rive_hb_set_create","__ZN4rive21ViewModelPropertyEnum10valueIndexENSt3__112basic_stringIcNS1_11char_traitsIcEENS1_9allocatorIcEEEE","__ZNK4rive4File8artboardEm","_rive_hb_ot_layout_table_find_script","__ZN4rive19ShapePaintContainer8addPaintEPNS_10ShapePaintE","__ZThn184_N4rive14LinearGradient7applyToEPNS_11RenderPaintEf","__ZNK4rive28ViewModelInstanceEnumRuntime5valueEv","__ZN4rive4File18cleanupScriptingVMEv","_artboardSetText","__ZNK4rive8DataBind4fileEv","__ZNK4rive14CursorPosition9lineIndexEi","_deflateEnd","_hydro_secretbox_probe_create","_rive_YGNodeLayoutGetTop","__ZN4rive21ArtboardComponentList8willDrawEv","_rawTextInputSetSelectionCornerRadius","__ZN4rive18ScriptedPathEffect12onAddedDirtyEPNS_11CoreContextE","_lua_setmetatable","__ZN4rive18NestedStateMachine14tryChangeStateEv","__ZN4rive3gpu13RenderContext12LogicalFlushC1EPS1_","_ma_spatializer_set_min_distance","_rive_hb_set_set","__ZThn408_N4rive21ArtboardComponentList19layoutBoundsForNodeEi","__ZNK4rive14GrTriangulator15mergeEdgesBelowEPNS0_4EdgeES2_PNS0_8EdgeListEPPNS0_6VertexERKNS0_10ComparatorE","__ZThn176_N4rive19ScriptInputArtboardD1Ev","__ZN4rive18TransformComponent17updateConstraintsEv","__ZN4rive19ElasticInterpolator14transformValueEfff","__ZNK4rive21ListenerTriggerChange17validateInputTypeEPKNS_17StateMachineInputE","__ZNK4rive17TextModifierRange10needsShapeEv","_ma_silence_pcm_frames","__ZN4rive16ScriptedDrawable11addPropertyEPNS_14CustomPropertyE","_lua_getinfo","_ma_dr_wav_init_file_w","_makeBufferedAudioSource","_rive_png_format_number","_rive_png_icc_check_header","__ZN4rive14StraightVertex13radiusChangedEv","__ZThn200_N4rive14ParametricPath11controlSizeENS_5Vec2DENS_15LayoutScaleTypeES2_NS_15LayoutDirectionE","_rive_YGNodeGetDirtiedFunc","_rive_png_crc_finish","__ZN4rive12RawTextInput6updateEPNS_7FactoryE","_hydro_sign_init","__ZN4rive32ViewModelInstanceArtboardRuntime5valueENS_3rcpINS_16BindableArtboardEEE","_flutterRenderImageId","__ZN4rive9ViewModelD1Ev","__ZN4rive20LayoutComponentStyle9alignSelfEv","__ZN4rive21ArtboardComponentList10layoutNodeEi","__ZN4rive23LinearAnimationImporterC1EPNS_15LinearAnimationE","_ma_copy_and_apply_volume_factor_u8","__ZN4rive11KeyedObjectC1Ev","_ma_dr_wav_open_file_and_read_pcm_frames_s32","__ZN4rive17ScriptedAnimation7setTimeENSt3__112basic_stringIcNS1_11char_traitsIcEENS1_9allocatorIcEEEE","__ZN4rive12RawTextInput16paragraphSpacingEf","__ZN4rive6Stroke17buildDependenciesEv","_rawTextGetMaxHeight","__ZN4rive34ViewModelInstanceAssetImageRuntime5valueEPNS_11RenderImageE","_SBMirrorLocatorLoadLine","__ZN4rive19ScriptAssetImporterC1EPNS_11ScriptAssetENS_3rcpINS_15FileAssetLoaderEEEPNS_7FactoryEPNSt3__16vectorINS_14InBandByteCodeENS8_9allocatorISA_EEEE","__ZN4rive15LayoutComponent14styleIdChangedEv","__ZN4rive15LayoutComponent9worldPathEv","__ZThn32_N4rive27ScriptedTransitionCondition11addPropertyEPNS_14CustomPropertyE","__ZN4rive8TrimPath12onAddedCleanEPNS_11CoreContextE","_rive_png_get_y_offset_pixels","_yogaStyleGetAlignSelf","_vmiListRuntimeInstanceAt","__ZNK4rive32FormulaTokenParenthesisCloseBase5cloneEv","_WebPSafeFree","__ZN4rive3gpu16StencilClipReset19pushToRenderContextEPNS0_13RenderContext12LogicalFlushEi","__ZN4rive18LayerStateImporter13addTransitionEPNS_15StateTransitionE","__ZNK4rive4File10artboardAtEm","_rive_png_read_finish_row","__ZN4rive13DataConverter6unbindEv","_ma_hpf_process_pcm_frames","_rive_YGNodeNew","_rive_png_write_tIME","__ZNK4rive21FormulaTokenValueBase5cloneEv","_ma_spatializer_listener_get_cone","_rive_hb_font_get_user_data","__ZThn256_N4rive18ScriptedPathEffect16createEffectPathEv","__ZNK4rive33TransitionValueEnumComparatorBase5cloneEv","_ma_gainer_get_heap_size","__ZNK6HBFont12getAxisCountEv","__ZN4rive10AudioSoundD1Ev","_ma_context_enumerate_devices","__Z20ma_pcm_interleave_u8PvPPKvyj","__ZN4rive8TrimPath12updateEffectEPNS_12PathProviderEPKNS_14ShapePaintPathEPKNS_10ShapePaintE","__ZNK4rive20StateMachineInstance12needsAdvanceEv","__ZN4rive15LayoutComponent11pathBuilderEv","_WebPRescalerImportRowExpand_C","_rive_png_read_filter_row","__ZN4rive6Stroke10capChangedEv","__ZNK4rive14CursorPosition14codePointIndexEi","__ZN4rive28TransitionViewModelCondition10initializeEv","__ZN4rive10SolidColor12onAddedDirtyEPNS_11CoreContextE","__ZN4rive29ArtboardComponentListOverride11addArtboardEPNS_16ArtboardInstanceE","__ZN4rive7RawTextC1EPNS_7FactoryE","__ZNK4rive17TextModifierGroup10needsShapeEv","_drawPath","_rive_YGNodeCopyStyle","_rive_png_chunk_benign_error","__ZN11rive_YGNode14setMeasureFuncEPF6YGSizePS_f18rive_YGMeasureModefS2_E","__ZN4rive17ViewModelInstance12addDependentEPNS_17DataBindContainerE","_ma_encoder_init","_copyViewModelInstance","_vmiListRuntimeSwap","_rive_hb_font_destroy","_WebPInitYUV444Converters","__ZN4rive14ParametricPath14originYChangedEv","__ZN4rive3gpu13RenderContext18TessellationWriterC2EPNS1_12LogicalFlushEjNS0_17ContourDirectionsEjjjj","__ZN4rive10AudioAsset6decodeERNS_11SimpleArrayIhEEPNS_7FactoryE","_rive_hb_set_has","__ZN4rive17TextModifierRange18falloffFromChangedEv","__ZN4rive20LayoutComponentStyle15maxWidthChangedEv","__ZNK4rive29ViewModelInstanceValueRuntime4nameEv","__ZN4rive20TextValueRunListener28createSinglePropertyListenerENS_10SymbolTypeE","_rive_YGNodeStyleGetDisplay","__ZN4rive3gpu8PathDraw18SelectCoverageTypeEPKNS_15RiveRenderPaintEfRKNS0_16PlatformFeaturesENS0_13InterlockModeE","__ZN4rive11AudioReaderD1Ev","_SBScriptLocatorLoadCodepoints","__ZN4rive8Artboard21bindViewModelInstanceENS_3rcpINS_17ViewModelInstanceEEE","_rive_hb_buffer_set_replacement_codepoint","__ZThn400_N4rive8ArtboardD0Ev","_ma_job_process","_ma_dr_flac_open_with_metadata","__ZNK4rive5Mat2D14mapBoundingBoxEPKNS_5Vec2DEm","_rive_png_set_hIST","_rive_YGRoundValueToPixelGrid","__ZN4rive31DataConverterOperationViewModel17copySourcePathIdsERKNS_35DataConverterOperationViewModelBaseE","_rive_hb_version_atleast","__ZN4rive16PropertyRecorder23recordStateMachineInputEPKNS_17StateMachineInputE","__ZN4rive3gpu24BackgroundShaderCompiler10threadMainEv","__ZN4rive3gpu22RenderContextMetalImpl16makeImageTextureEjjjPKh","_ma_linear_resampler_get_required_input_frame_count","__ZN4rive12BinaryWriter5writeEPKhm","__ZN4rive12RawTextInput16cursorHorizontalEiNS_14CursorBoundaryEb","__ZN4rive17ViewModelInstance14propertyValuesEv","__ZNK4rive12BinaryReader13lengthInBytesEv","__ZNK4rive21CubicEaseInterpolator9transformEf","_ma_spatializer_listener_set_speed_of_sound","_rive_hb_draw_funcs_make_immutable","_ma_bpf_reinit","__ZNK4rive9FileAsset7cdnUuidEv","_zlibVersion","_ma_delay_node_set_wet","__ZNK4rive13KeyedProperty20reportKeyedCallbacksEPNS_21KeyedCallbackReporterEjffb","__ZN4rive7NSlicer6updateENS_13ComponentDirtE","_ma_paged_audio_buffer_data_allocate_and_append_page","_rive_hb_font_get_glyph_h_advances","__ZN4rive27ViewModelInstanceAssetImage10applyValueEPNS_16DataValueIntegerE","_ma_realloc","_ma_sound_stop_with_fade_in_pcm_frames","__ZNK4rive4File15findViewModelIdEPNS_9ViewModelE","__ZN4rive4Bone12addChildBoneEPS0_","__ZN4rive16ScrollConstraint13viewportWidthEv","__ZN4rive23ListenerViewModelChangeD0Ev","_ma_notch_node_uninit","__ZN4rive4Axis13offsetChangedEv","__ZN4rive7RawPath5cubicENS_5Vec2DES1_S1_","__ZThn376_N4rive21ArtboardComponentList18hostTransformPointERKNS_5Vec2DEPNS_16ArtboardInstanceE","_makeAudioSourceBuffer","__ZN4rive24ListFollowPathConstraint17constrainAtOffsetERKNS_5Mat2DES3_f","__ZN4rive17FileAssetImporter19onFileAssetContentsENSt3__110unique_ptrINS_17FileAssetContentsENS1_14default_deleteIS3_EEEE","_unrefAudioSound","__ZN4rive12BinaryReader11readFloat64Ev","__ZNK4rive23StateMachineTriggerBase5cloneEv","__ZN13rive_facebook4yoga5Event5resetEv","_ma_dr_wav_s24_to_s32","_rive_png_safe_warning","__ZN4rive20LayoutComponentStyle26borderTopUnitsValueChangedEv","_rive_YGNodeStyleSetGap","_setViewModelInstanceColorCallback","__ZN4rive16ScriptedPropertyC2EP9lua_StateNS_3rcpINS_22ViewModelInstanceValueEEE","_ma_engine_get_node_graph","_rive_hb_unicode_funcs_is_immutable","_yogaStyleSetMaxDimension","_rive_YGNodeStyleSetMarginPercent","__ZN4rive15RiveRenderPaintD0Ev","__ZN4rive20ScriptReffedArtboard4fileEv","_rive_jpeg_idct_1x2","__Z18luaopen_rive_colorP9lua_State","__ZNK4rive14NestedArtboard22hasNestedStateMachinesEv","_ma_bpf2_config_init","__ZN4rive7RawPath7addPolyENS_4SpanIKNS_5Vec2DEEEb","_riveFileArtboardDefault","_rive_hb_font_reference","_ma_data_source_is_looping","__ZN4rive20LayoutComponentStyle27layoutWidthScaleTypeChangedEv","__ZNK6HBFont11withOptionsEN4rive4SpanIKNS0_4Font5CoordEEENS1_IKNS2_7FeatureEEE","__ZN4rive25DataBindContextValueColorC2EPNS_8DataBindE","__ZN4rive11AudioEngine4stopEv","__ZN4rive20StateMachineListenerC1Ev","_rive_hb_font_get_glyph_from_name","_rive_hb_ot_layout_lookup_substitute_closure","_VP8Clear","__ZN4rive12PathComposer7onDirtyENS_13ComponentDirtE","_deflateResetKeep","__ZNK4rive14DrawTargetBase5cloneEv","_ma_pcm_u8_to_f32","__ZNK4rive27BindablePropertyIntegerBase5cloneEv","__ZN4rive15LinearAnimationC1Ev","__ZNK4rive36ViewModelInstanceSymbolListIndexBase5cloneEv","_rive_png_error","_rive_png_safecat","_rive_jpeg_mem_src","__ZN4rive7RawText5clearEv","_rive_png_read_png","__ZThn536_N4rive20NestedArtboardLayout12layoutBoundsEv","__ZNK4rive12StateMachine8dataBindEm","__ZN11rive_YGNodeC2EOS_","__ZN4rive4Text14originYChangedEv","_hydro_secretbox_keygen","__ZN4rive14NestedArtboard4fileEPNS_4FileE","__ZNK4rive14GrTriangulator13applyFillTypeEi","_rive_hb_ot_tag_to_language","__ZN4rive8DataBind16sourceOutputTypeEv","__ZN4rive20StateMachineImporterC1EPNS_12StateMachineE","_rive_hb_unicode_funcs_set_compose_func","__ZThn408_N4rive21ArtboardComponentList18updateLayoutBoundsEb","_vmiValueRuntimeClearChanges","__ZN4rive28TransitionViewModelConditionD0Ev","_animationInstanceDelete","__ZN4rive20ScriptReffedArtboardD1Ev","_playAudioSource","_rive_hb_shape_plan_create","__ZN4rive29PropertySymbolDependentSingleC2EPNS_4CoreEPNS_18CoreObjectListenerEPNS_22ViewModelInstanceValueEt","_ma_data_source_set_loop_point_in_pcm_frames","__ZN4rive29ArtboardComponentListOverride20updateHeightOverrideEv","_lua_getthreaddata","_SBCodepointSequenceGetCodepointBefore","__ZN4rive18CoreObjectListenerD2Ev","__ZN4rive14ScriptedObject15setBooleanInputENSt3__112basic_stringIcNS1_11char_traitsIcEENS1_9allocatorIcEEEEb","_WebPInitCustomIo","_ma_sound_init_ex","_ma_rb_pointer_distance","__ZNK4rive8Artboard9animationEm","__ZN4rive11NSlicedNode13heightChangedEv","__ZN4rive4math13chop_cubic_atEPKNS_5Vec2DEPS1_ff","_ma_sound_set_attenuation_model","_rive_png_image_begin_read_from_stdio","_rive_png_write_chunk","_ma_sound_get_doppler_factor","__ZN4rive14AnimationReset20writeTotalPropertiesEj","__ZN4rive20BlendState1DInstance7advanceEfPNS_20StateMachineInstanceE","__ZN4rive16ScriptedPathData10renderPathEP9lua_State","__ZN4rive22ViewportDraggableProxy9startDragENS_5Vec2DEf","__ZN4rive21CubicEaseInterpolator14transformValueEfff","_rive_png_image_finish_read","__ZN4rive16ScrollConstraint14viewportHeightEv","__Z18renderPathFillRulePN4rive7FactoryEPNS_10RenderPathE","_luaL_errorL","__Z18luaopen_rive_imageP9lua_State","__ZN4rive29ViewModelInstanceValueRuntimeD1Ev","__ZN4rive14TextStylePaint7addPathERKNS_7RawPathEf","_ma_node_init","_SBMirrorLocatorMoveNext","_rive_hb_blob_reference","_WebPMultARGBRow_C","__ZN4rive10AudioEvent7assetIdEv","_rive_hb_buffer_destroy","__ZN4rive4Skin7onDirtyENS_13ComponentDirtE","__ZNK4rive9ShapeBase5cloneEv","__Z25rive_YGFlexDirectionCross20rive_YGFlexDirection16rive_YGDirection","_rive_hb_set_next_many","_rive_jinit_arith_decoder","_rawTextInputGetSeparateSelectionText","_ma_engine_listener_get_velocity","_rive_png_set_sig_bytes","__ZNK4rive5Shape18computeWorldBoundsEPKNS_5Mat2DE","_lua_cpcall","_rive_hb_ot_layout_collect_lookups","_rive_YGNodeRemoveAllChildren","__ZN4rive11AudioSource15MakeAudioSourceENS_4SpanIhEE","__ZN4rive26ViewModelInstanceViewModel8advancedEv","__ZN11rive_YGNode12replaceChildEPS_j","__ZN4rive4Star12buildPolygonEv","_ma_volume_db_to_linear","_luaL_where","_ma_sound_set_stop_time_in_milliseconds","_rive_YGNodeStyleSetWidthAuto","__ZN4rive9HitTester5cubicENS_5Vec2DES1_S1_","__ZN4rive23PropertySymbolDependentD0Ev","__ZThn408_N4rive14NestedArtboard18hostTransformPointERKNS_5Vec2DEPNS_16ArtboardInstanceE","_ma_async_notification_poll_is_signalled","_rive_jpeg_idct_14x7","_rive_hb_font_get_h_extents","__ZN4rive13KeyFrameColor5applyEPNS_4CoreEif","__ZN4rive14TextStylePaint4drawEPNS_8RendererERKNS_5Mat2DE","__ZN4rive21ArtboardComponentList16advanceComponentEfNS_12AdvanceFlagsE","_renderImageWidth","__ZN4rive20LayoutComponentStyle30intrinsicallySizedValueChangedEv","__ZN4rive14GrTriangulator14contoursToMeshEPNS0_10VertexListEiS2_RKNS0_10ComparatorE","_ma_apply_volume_factor_pcm_frames_f32","__ZNK4rive5Mat2D12findMaxScaleEv","__ZN4rive21ArtboardComponentList13listsAreEqualEPNSt3__16vectorINS_3rcpINS_25ViewModelInstanceListItemEEENS1_9allocatorIS5_EEEES9_","_WebPDecodeYUVInto","_rive_hb_buffer_create_similar","__ZN4rive4math13chop_cubic_atEPKNS_5Vec2DEPS1_f","__ZN11rive_YGNode8baselineEffPv","__ZN4rive5Shape9worldPathEv","_ma_event_uninit","_rive_YGNodeStyleSetPaddingPercent","_ma_hpf2_init_preallocated","_rive_hb_font_funcs_set_user_data","__ZN4rive14LinearGradient17buildDependenciesEv","__ZN4rive25DataConverterInterpolator14reverseConvertEPNS_9DataValueEPNS_8DataBindE","__ZN4rive3gpu23RenderContextHelperImpl25unmapTriangleVertexBufferEm","__ZNK4rive8Artboard12layoutHeightEv","_lua_rawequal","_ma_hishelf2_init","__ZN4rive17ScrollVirtualizer12recycleItemsENSt3__16vectorIiNS1_9allocatorIiEEEERNS2_IPNS_18LayoutNodeProviderENS3_IS7_EEEEi","__ZThn168_N4rive10ShapePaint15addStrokeEffectEPNS_12StrokeEffectE","_ma_dr_flac_init_cuesheet_track_iterator","_makeRawTextInput","__ZN4rive10PathVertex12onAddedDirtyEPNS_11CoreContextE","__ZN4rive3gpu30ConvertBlendModeToPLSBlendModeENS_9BlendModeE","__Z22ma_vfs_or_default_readPvS_S_mPm","__ZN4rive11AudioSourceC1ENS_4SpanIhEE","_ma_calculate_buffer_size_in_milliseconds_from_frames","__ZN4rive18LayerStateImporter17addBlendAnimationEPNS_14BlendAnimationE","__ZN4rive7Feather15strengthChangedEv","_ma_spatializer_get_doppler_factor","__ZN4rive14TextStylePaintC2Ev","__ZN4rive14TrimEffectPath16invalidateEffectEv","_crc32_combine","__ZN4rive15LayoutComponent13propagateSizeEv","_ma_dr_flac_init_vorbis_comment_iterator","_rive_YGNodeGetNodeType","_ma_device_get_master_volume","_makeYogaStyle","__ZN4rive8DashPath12onAddedCleanEPNS_11CoreContextE","__ZNK4rive18ScriptedPathEffect5cloneEv","__ZNK4rive19ElasticInterpolator9transformEf","__ZN4rive3gpu13RenderContextD0Ev","_WebPRescalerImportRowShrink_C","__ZN4rive14NSlicerDetails8addAxisXEPNS_4AxisE","__ZN4rive19ConditionComparison14compareUints32Ejj","__ZN4rive20ScriptedVertexBuffer6updateEPNS_7FactoryE","_rive_jpeg_idct_5x10","__ZNK4rive7RawPath9transformERKNS_5Mat2DE","__ZN4rive16ScriptingContext9addModuleEPNS_13ModuleDetailsE","__ZN4rive22DataConverterStringPad11textChangedEv","__ZN4rive20InterpolatorAdvancer20currentAnimationDataEv","__ZNK4rive4File16viewModelByIndexEm","_ma_sound_group_set_doppler_factor","__ZN4rive8DataBind7addDirtENS_13ComponentDirtEb","_ma_biquad_uninit","_ma_sound_set_directional_attenuation_factor","__ZN4rive19TransformConstraint14originYChangedEv","__ZThn392_N4rive14ScriptedLayout11addPropertyEPNS_14CustomPropertyE","_rive_hb_buffer_reverse_range","__ZN4rive31DataConverterOperationViewModel7convertEPNS_9DataValueEPNS_8DataBindE","__ZNK4rive9EventBase5cloneEv","__ZN4rive18DataConverterGroup6updateEv","_ma_resampler_set_rate","_rive_png_check_fp_number","__ZN4rive12BinaryReader9readBytesEm","_ma_spatializer_get_input_channels","_getCustomPropertyBoolean","__ZN4rive18UnpackColorToRGBA8EjPh","_lua_pushcclosurek","__ZN4rive3gpu8PathDraw28iterateInteriorTriangulationENS1_23InteriorTriangulationOpEPNS_21TrivialBlockAllocatorEPNS_7RawPathENS1_16TriangulatorAxisEPNS0_13RenderContext18TessellationWriterE","_rive_YGNodeRemoveChild","_ma_spatializer_listener_set_cone","__ZN4rive3gpu24BackgroundShaderCompiler7pushJobERKNS0_20BackgroundCompileJobE","__ZNK4rive24CustomPropertyNumberBase5cloneEv","_luaL_addvalue","__ZN4rive3gpu13RenderContext16makeRenderBufferENS_16RenderBufferTypeENS_17RenderBufferFlagsEm","__ZNK4rive14ScriptedObject11scriptAssetEv","_rive_hb_font_funcs_get_user_data","__ZN4rive12RiveRenderer7restoreEv","_renderPathSetFillRule","__ZThn200_N4rive9TextInput11controlSizeENS_5Vec2DENS_15LayoutScaleTypeES2_NS_15LayoutDirectionE","_luaopen_coroutine","_rive_hb_blob_get_user_data","_rive_png_write_eXIf","_ma_hishelf_node_init","__ZNK4rive7RawPath8isClosedEv","__ZNK4rive24FormulaTokenFunctionBase5cloneEv","_ReadHuffmanCodesHelper","__ZN4rive8DataEnum5valueEjNSt3__112basic_stringIcNS1_11char_traitsIcEENS1_9allocatorIcEEEE","__ZN4rive23PropertySymbolDependent7addDirtENS_13ComponentDirtEb","_ma_dr_flac_open_file_and_read_pcm_frames_s16","__ZN4rive16EffectsContainer15addStrokeEffectEPNS_12StrokeEffectE","__ZN13rive_YGConfig29setExperimentalFeatureEnabledE21YGExperimentalFeatureb","__ZN4rive17BackboardImporter12addFileAssetENS_3rcpINS_9FileAssetEEE","_rive_hb_ot_layout_get_font_extents","_rive_hb_font_funcs_set_glyph_name_func","__Z25ma_encoder_init__internalPF9ma_resultP10ma_encoderPKvmPmEPFS_S1_x14ma_seek_originEPvS1_","__ZN4rive17ScriptedPaintDataC1Ev","__Z19luaopen_rive_contexP9lua_State","__ZN4rive8Artboard5resetEv","__ZN4rive23LinearAnimationInstanceC2ERKS0_","_ma_dr_wav_init_file_ex_w","_ma_linear_resampler_get_heap_size","_rive_jpeg_abort_decompress","__ZN4rive21NestedLinearAnimationD0Ev","_rive_png_build_grayscale_palette","_rive_hb_buffer_set_direction","__ZThn8_N4rive20StateMachineInstance11reportEventEPNS_5EventEf","__ZN4rive14ShapePaintPath10renderPathEPNS_7FactoryE","__ZNK4rive14AudioEventBase5cloneEv","__ZN4rive17TextModifierGroup13glyphCoverageEjj","_WebPDemuxInternal","__ZN4rive19ShapePaintContainer16propagateOpacityEf","__ZN4rive16ArtboardImporterC1EPNS_8ArtboardE","_ma_hpf2_config_init","_rive_YGNodeStyleSetPositionType","__ZN4rive17ScriptedPaintData9pushColorEP9lua_State","_rive_png_set_cHRM_XYZ_fixed","__ZN4rive6Vertex17renderTranslationEv","_vmiListRuntimeRemoveInstanceAt","__ZNK4rive6Cursor14selectionRectsERNSt3__16vectorINS_4AABBENS1_9allocatorIS3_EEEERKNS_15FullyShapedTextE","__ZN4rive20DataBindContextValue15syncSourceValueEv","__ZN4rive22ViewModelInstanceAsset6importERNS_11ImportStackE","__ZNK4rive14LinearGradient12makeGradientEPNS_11RenderPaintENS_5Vec2DES3_PKjPKfm","__ZN4rive19HitScriptedDrawable12processEventENS_5Vec2DENS_12ListenerTypeEbfi","_rive_hb_buffer_get_invisible_glyph","__ZNK4rive20StateMachineInstance7getBoolERKNSt3__112basic_stringIcNS1_11char_traitsIcEENS1_9allocatorIcEEEE","_yogaStyleSetMargin","__ZN4rive12RiveRenderer11ClipElement5resetERKNS_5Mat2DEPKNS_14RiveRenderPathENS_8FillRuleE","__ZN4rive23WorldTransformComponent21mutableWorldTransformEv","__ZN4rive14GrTriangulator8makeEdgeEPNS0_6VertexES2_NS0_8EdgeTypeERKNS0_10ComparatorE","__ZN4rive9Skinnable4fromEPNS_9ComponentE","_fontAxisCount","_ma_linear_resampler_get_output_latency","__ZNK4rive18ListenerBoolChange23validateNestedInputTypeEPKNS_11NestedInputE","__ZN4rive29DataConverterSystemNormalizer14reverseConvertEPNS_9DataValueEPNS_8DataBindE","_WebPFlipBuffer","__ZN4rive3gpu13RenderContext9pushDrawsEPNSt3__110unique_ptrINS0_4DrawENS0_15DrawReleaseRefsEEEm","_hydro_increment","_rive_hb_ot_layout_get_baseline","__ZN4rive29ViewModelInstanceListImporter7addItemENS_3rcpINS_25ViewModelInstanceListItemEEE","__ZN6HBFontD2Ev","_hydro_random_reseed","__ZNK4rive12RawTextInput6boundsEv","_yogaNodeMarkDirty","__ZNK11rive_YGNode16getLeadingBorderE20rive_YGFlexDirection","_ma_sound_set_stop_time_in_pcm_frames","__ZN4rive16PropertyRecorderC1Ev","__ZN4rive20StateMachineInstance20disablePointerEventsEi","__ZN4rive19FileAssetReferencerD0Ev","_rive_png_get_rowbytes","_rive_png_write_row","__ZN4rive20NestedRemapAnimation11timeChangedEv","__ZN4rive3gpu13RenderContext18TessellationWriterD1Ev","_luaL_checkudata","_setArtboardTransformDirtyCallback","__ZN4rive29ArtboardComponentListOverride5isRowEv","_rive_png_create_read_struct","__ZN4rive14GrTriangulator4Edge10disconnectEv","__ZN4rive17ScriptedPaintData13pushThicknessEP9lua_State","_rive_hb_buffer_set_language","_rive_png_write_chunk_end","__Z18ma_mp3_init_memoryPKvmPK26ma_decoding_backend_configPK23ma_allocation_callbacksP6ma_mp3","__ZN4rive11DataContext8advancedEv","__ZN4rive20LayoutComponentStyle16marginTopChangedEv","__ZN4rive20LayoutComponentStyle26maxHeightUnitsValueChangedEv","__ZN4rive12RiveRenderer9transformERKNS_5Mat2DE","__ZN4rive17ScriptedPaintData8pushJoinEP9lua_State","__ZN4rive17TextModifierGroup16addModifierRangeEPNS_17TextModifierRangeE","_hb_coretext_face_get_cg_font","__ZThn24_N4rive8DataBind7addDirtENS_13ComponentDirtEb","__ZN4rive20StateMachineInstance11pointerExitENS_5Vec2DEi","__ZN4rive20LayoutComponentStyle27borderLeftUnitsValueChangedEv","__ZThn424_N4rive14NestedArtboardD1Ev","_rive_png_do_read_interlace","_lua_userdatatag","__ZN4rive19ScriptAssetImporter11scriptAssetEv","__ZN4rive13CoreColorType14deserializeRevERNS_12BinaryReaderE","__ZN4rive22ScriptedObjectImporterC2EPNS_14ScriptedObjectE","_ma_spatializer_get_position","__ZN11rive_YGNode5resetEv","__ZN4rive11ScriptingVMC2EPNS_16ScriptingContextEP9lua_State","_rive_png_get_header_version","__ZN4rive14GrTriangulator11SortedMergeEPNS0_10VertexListES2_S2_RKNS0_10ComparatorE","__ZN4rive20ElasticScrollPhysicsD1Ev","__ZN4rive16ViewModelRuntimeC2EPNS_9ViewModelEPKNS_4FileE","__ZN4rive11ScriptingVMC2EPNS_16ScriptingContextE","_ma_dr_wav_init_with_metadata","__ZNK4rive8TextBase5cloneEv","__ZN4rive12StateMachineD0Ev","__ZN4rive15LayoutComponent12hitTestPointERKNS_5Vec2DEbb","_artboardSetFrameOrigin","_ma_encoder_write_pcm_frames","_rive_png_warning_parameter_signed","_rive_YGNodeHasBaselineFunc","__ZN4rive12quad_extractEPKNS_5Vec2DEffPS0_","_vmiRuntimeGetNumberProperty","__ZN4rive11ScriptingVMC1EPNS_16ScriptingContextEP9lua_State","__ZThn448_N4rive15LayoutComponentD1Ev","__ZN4rive6Weight12onAddedDirtyEPNS_11CoreContextE","__ZN4rive22ViewModelInstanceValue14onValueChangedEv","_ma_paged_audio_buffer_data_uninit","__ZN4rive22StateMachineFireAction6importERNS_11ImportStackE","_ma_spatializer_listener_get_direction","_rive_hb_buffer_has_positions","__ZN4rive8Artboard15calculateLayoutEv","__ZN4rive8Joystick22addAnimationDependentsEPNS_8ArtboardEPNS_15LinearAnimationE","_artboardGetText","_renderPathCopyBuffers","_ma_node_graph_get_time","__ZN4rive22CubicValueInterpolatorC1Ev","__ZN4rive23WorldTransformComponent12childOpacityEv","__ZN4rive15StateTransition6importERNS_11ImportStackE","__ZNK4rive24DataConverterFormulaBase5cloneEv","__ZNK4rive12DashPathBase5cloneEv","__ZN4rive12TextValueRun11hitTestAABBERKNS_5Vec2DE","__ZThn176_N4rive4Mesh4drawEPNS_8RendererEPKNS_11RenderImageENS_12ImageSamplerENS_9BlendModeEf","__ZThn160_N4rive17ScriptInputStringD1Ev","__ZThn128_N4rive13ManifestAsset11resolveNameEi","__ZN4rive20LayoutComponentStyle30positionRightUnitsValueChangedEv","__ZN4rive18TransformComponent18markTransformDirtyEv","_ma_lpf2_init_preallocated","__ZN13rive_YGConfig18setShouldPrintTreeEb","__ZThn168_N4rive21ScriptedDataConverter19disposeScriptInputsEv","__ZN4rive9Component12addDependentEPS0_","_cascadeLayoutStyle","__ZN4rive16ScriptedProperty11addListenerEv","_rive_png_write_image","_setBooleanValue","__ZN4rive12line_extractEPKNS_5Vec2DEffPS0_","_rive_hb_aat_layout_has_tracking","_rive_jpeg_idct_10x10","_componentGetX","__ZN4rive14NSlicerDetails8addAxisYEPNS_4AxisE","__ZN4rive16ScriptInputColor6importERNS_11ImportStackE","__ZN4rive19TransitionCondition6importERNS_11ImportStackE","_hydro_init","_rive_YGNodeCalculateLayoutWithContext","__ZN4rive9ViewModel14createInstanceEv","_lua_createtable","_rive_hb_segment_properties_equal","_rive_png_write_chunk_start","__ZNK4rive13ViewModelBase5cloneEv","_rive_png_set_rows","__ZN4rive8DataBind23sourceToTargetRunsFirstEv","__ZThn168_N4rive10ShapePaint17invalidateEffectsEv","_lua_isLfunction","__ZN4rive17ScrollVirtualizer10virtualizeEPNS_16ScrollConstraintERNSt3__16vectorIPNS_18LayoutNodeProviderENS3_9allocatorIS6_EEEE","__ZN4rive20StateMachineInstance11reportEventEPNS_5EventEf","_lua_getuserdatadtor","__ZNK4rive23LinearAnimationInstance3fpsEv","_makeYogaNode","__ZN4rive5Scene19reportKeyedCallbackEjjf","__ZNK4rive30ViewModelInstanceStringRuntime5valueEv","__ZN4rive21CubicAsymmetricVertex9computeInEv","__ZN4rive20TransitionComparator6importERNS_11ImportStackE","_rive_hb_shape_plan_get_empty","__ZN4rive15LayoutComponent13interpolationEv","__ZN4rive21ArtboardComponentList6unbindEv","_ma_sound_group_config_init_2","_setArtboardLayoutChangedCallback","__ZNK4rive22RotationConstraintBase5cloneEv","_ma_sound_set_min_distance","__ZN4rive21ScriptedPropertyColorC2EP9lua_StateNS_3rcpINS_22ViewModelInstanceColorEEE","__ZN4rive18TransformComponent22markDirtyIfConstrainedEv","_VP8InitDithering","__ZN4rive16PropertyRecorder18writePropertyValueEfRNS_18VectorBinaryWriterE","_ma_dr_wav_init_ex","__ZNK4rive19ScriptInputArtboard5cloneEv","__ZNK4rive21StateMachineLayerBase5cloneEv","__ZN4rive29ViewModelInstanceListImporterC1EPNS_21ViewModelInstanceListE","_ma_node_get_output_channels","_deleteCustomProperty","__ZN4rive15LayoutComponent18syncLayoutChildrenEv","_ma_device_get_master_volume_db","__ZThn176_N4rive8DashPath12updateEffectEPNS_12PathProviderEPKNS_14ShapePaintPathEPKNS_10ShapePaintE","_rive_hb_buffer_get_content_type","__ZN4rive10AudioEvent4playEv","__ZNK4rive33ArtboardComponentListOverrideBase5cloneEv","__ZN4rive10SMITriggerC1EPKNS_19StateMachineTriggerEPNS_20StateMachineInstanceE","__ZNK4rive20StateMachineInstance19stateChangedByIndexEm","__ZThn456_N4rive21ArtboardComponentList13listTransformEv","__ZN4rive11AudioEngine13RuntimeEngineEb","__ZNK4rive11RangeMapper20unitToCharacterRangeEf","__ZNK4rive12StateMachine8listenerEm","__ZN4rive19ScrollBarConstraint8validateEPNS_11CoreContextE","_hydro_hash_init","__ZN4rive16ArtboardInstanceD0Ev","__ZN4rive18NestedArtboardLeaf6updateENS_13ComponentDirtE","__ZN4rive3gpu8PathDraw14countSubpassesEv","_ma_dr_wav_open_memory_and_read_pcm_frames_s16","__ZN4rive29ArtboardComponentListOverride14removeArtboardEPNS_16ArtboardInstanceE","__ZN4rive15LayoutComponent17buildDependenciesEv","__ZN4rive8Artboard24clearRedundantOperationsEv","__ZThn8_N4rive20StateMachineInstanceD0Ev","__ZN4rive8Artboard16updateComponentsEv","__ZN4rive4Node14localTransformEv","_rive_YGNodeDeallocate","__ZN4rive13ListenerGroup15needsUpListenerEPNS_9ComponentE","__ZNK4rive14MeshVertexBase5cloneEv","_WebPDecodeRGB","_rive_png_get_pixel_aspect_ratio","_rawTextCursorLeft","__ZN4rive20DataConverterTrigger7convertEPNS_9DataValueEPNS_8DataBindE","_rive_hb_face_reference","__ZN4rive12RiveRenderer15modulateOpacityEf","__ZN4rive14ParametricPath13heightChangedEv","_ma_aligned_malloc","_rive_YGConfigNew","_ma_sound_set_spatialization_enabled","__ZN4rive8DataBind8toSourceEv","_ma_engine_node_init","__ZN4rive26CPPRuntimeScriptingContext5pCallEP9lua_Stateii","_luaL_checkboolean","__ZN4rive23ScriptedPropertyBoolean8setValueEb","_ma_dr_mp3_calculate_seek_points","__ZNK4rive18StraightVertexBase5cloneEv","__ZN4rive14NestedArtboard7hitTestEPNS_7HitInfoERKNS_5Mat2DE","__ZN4rive15LinearAnimation14addKeyedObjectENSt3__110unique_ptrINS_11KeyedObjectENS1_14default_deleteIS3_EEEE","_adler32_z","_rive_png_do_write_interlace","_rive_png_set_compression_level","_VP8DspInit","_rive_png_set_strip_16","__ZN4rive22ScriptedListenerAction6importERNS_11ImportStackE","_ma_encoder_config_init","_ma_fader_get_current_volume","_inflateSetDictionary","__ZN4rive21ArtboardComponentList20stateMachineInstanceEi","__ZN4rive14GrTriangulator15contoursToPolysEPNS0_10VertexListEi","_ma_deinterleave_pcm_frames","__ZN4rive12PathComposerC2EPNS_5ShapeE","__ZNK4rive24BindablePropertyEnumBase5cloneEv","_ma_panner_config_init","__ZN4rive5Shape12onAddedDirtyEPNS_11CoreContextE","__ZN4rive17TextModifierGroup19applyShapeModifiersERKNS_4TextERNS_10StyledTextE","_lua_checkstack","__ZN4rive21ViewModelInstanceEnum5valueENSt3__112basic_stringIcNS1_11char_traitsIcEENS1_9allocatorIcEEEE","__ZNK4rive21ViewModelInstanceList5cloneEv","_rawTextMoveCursorTo","__ZN4rive20StateMachineInstance11applyEventsEv","__ZN4rive16EffectsContainer14lastEffectPathEPNS_12PathProviderE","__ZThn184_N4rive8Joystick11controlSizeENS_5Vec2DENS_15LayoutScaleTypeES2_NS_15LayoutDirectionE","__ZN4rive4math27find_cubic_convex_180_chopsEPKNS_5Vec2DEPfPb","_ma_semaphore_uninit","__ZN4rive14NestedArtboard14updateArtboardEPNS_25ViewModelInstanceArtboardE","__ZN4rive4File15makeScriptingVMEP9lua_State","__ZN4rive21ViewModelInstanceList15internalAddItemENS_3rcpINS_25ViewModelInstanceListItemEEE","__ZN4rive25ViewModelInstanceImporterC2EPNS_17ViewModelInstanceE","__ZNK4rive26CubicValueInterpolatorBase5cloneEv","__ZN4rive3gpu22RenderContextMetalImpl18resizeAtlasTextureEjj","__ZThn16_N4rive22ScriptedListenerAction19disposeScriptInputsEv","__ZN4rive17TextModifierGroup15rotationChangedEv","__ZN4rive16PropertyRecorder17recordKeyedObjectEPKNS_11KeyedObjectE","__ZN4rive36TransitionViewModelConditionImporter13setComparatorEPNS_20TransitionComparatorE","__ZThn200_N4rive14ScriptedLayout13measureLayoutEfNS_17LayoutMeasureModeEfS1_","_yogaNodeSetMeasureFunc","_ma_pcm_u8_to_s24","__ZN4rive17RiveRenderFactory15makeRenderPaintEv","__ZNK4rive31ViewModelPropertyAssetImageBase5cloneEv","__ZN4rive12RawTextInput21separateSelectionTextEb","_rive_hb_font_get_glyph_h_kerning","_rive_png_get_uint_16","__ZN6Bitmap11pixelFormatENS_11PixelFormatE","__ZN4rive17ScrollVirtualizer5resetEv","_ma_device_id_equal","__ZN4rive4Text17buildRenderStylesEv","__ZN4rive20TextValueRunListenerC2EPNS_12TextValueRunENS_3rcpINS_17ViewModelInstanceEEEPNS_4TextE","__ZN4rive19ScriptAssetImporter7resolveEv","__ZN4rive12TargetEffect16invalidateEffectEPNS_12PathProviderE","__ZN4rive8TriangleC1Ev","__ZN4rive5Image7setMeshEPNS_12MeshDrawableE","_rive_YGNodeSetDirtiedFunc","_ma_rb_available_read","__ZN4rive3gpu22RenderContextMetalImpl16makeRenderTargetE14MTLPixelFormatjj","_SBCodepointGetScript","__ZN4rive8Artboard11cleanLayoutEPNS_15LayoutComponentE","__ZN4rive18ScriptedPathEffect11parentPaintEv","__ZN4rive20LayoutComponentStyle20paddingBottomChangedEv","__ZNK4rive4File25completeViewModelInstanceENS_3rcpINS_17ViewModelInstanceEEERNSt3__113unordered_mapIPS2_S3_NS4_4hashIS6_EENS4_8equal_toIS6_EENS4_9allocatorINS4_4pairIKS6_S3_EEEEEE","__ZN11rive_YGNode5printEPv","__ZNK4rive11NSlicedNode16deformLocalPointENS_5Vec2DERKNS_5Mat2DES4_","_rive_jpeg_start_decompress","__ZN4rive19ScrollBarConstraint8hitTrackENS_5Vec2DE","__ZN4rive23LinearAnimationInstanceC1ERKS0_","__ZN4rive4Skin6deformENS_4SpanIPNS_6VertexEEE","_ma_spinlock_lock","_rive_hb_draw_funcs_set_cubic_to_func","__ZN4rive20StateMachineImporter14readNullObjectEv","__ZThn16_N4rive22ScriptedListenerActionD0Ev","_yogaStyleSetFlexShrink","_WebPCopyDecBufferPixels","_ma_dr_wav_init_file_write_sequential_pcm_frames_w","_rive_hb_ot_layout_table_select_script","_rive_png_icc_check_tag_table","__ZN4rive4Fill15initRenderPaintEPNS_17ShapePaintMutatorE","__ZN4rive10AudioEvent8setAssetENS_3rcpINS_9FileAssetEEE","__ZN4rive8Artboard7changedEv","_luaL_openlibs","__ZNK4rive13StateInstance5stateEv","_modulateOpacity","_ma_dr_flac_open_with_metadata_relaxed","_rive_png_do_invert","__ZN4rive12PathComposer19pathCollapseChangedEv","__ZN4rive17ViewModelInstance8advancedEv","_ma_copy_and_apply_volume_factor_s32","__ZN4rive21ArtboardComponentList5clearEv","_deflateSetDictionary","__ZN4rive16PropertyRecorder14recordArtboardEPKNS_8ArtboardE","_rive_png_reset_crc","_luaL_sandboxthread","__ZN4rive9ViewModelD0Ev","_ma_decoder_init_vfs_w","_ma_vfs_seek","_rive_hb_direction_from_string","_ma_node_uninit","_ma_node_get_output_bus_count","__ZN4rive9Component12hitTestPointERKNS_5Vec2DEbb","__ZN4rive8TrimPath8trimPathEPNS_14ShapePaintPathERNSt3__16vectorINS_3rcpINS_14ContourMeasureEEENS3_9allocatorIS7_EEEEPKNS_7RawPathENS_14ShapePaintTypeE","_rive_hb_draw_funcs_get_user_data","_SBScriptLocatorCreate","__ZNK4rive4File21copyViewModelInstanceEPNS_17ViewModelInstanceERNSt3__113unordered_mapIS2_NS_3rcpIS1_EENS3_4hashIS2_EENS3_8equal_toIS2_EENS3_9allocatorINS3_4pairIKS2_S6_EEEEEE","_ma_dr_flac_free","__ZN13rive_YGConfig20setCloneNodeCallbackEPFP11rive_YGNodeS1_S1_iPvE","_ma_notch2_config_init","__ZNK4rive4Text10makeStyledERNS_10StyledTextEb","_ma_spatializer_listener_get_world_up","_SBParagraphGetBaseLevel","__Z13ma_vec3f_dist8ma_vec3fS_","__ZN4rive16ArtboardInstance7getBoolERKNSt3__112basic_stringIcNS1_11char_traitsIcEENS1_9allocatorIcEEEES9_","_lua_next","__ZN4rive29ArtboardComponentListOverride20instanceWidthChangedEv","_ma_engine_set_time_in_pcm_frames","__ZN4rive20LayoutComponentStyle10alignItemsEv","__ZN4rive27ScriptedTransitionConditionD0Ev","_ma_dr_wav_guid_equal","__ZN4rive6Stroke19invalidateRenderingEv","__ZNK4rive20StateMachineInstance24bindableDataBindToTargetEPNS_16BindablePropertyE","__ZN4rive4Text17clearRenderStylesEv","__ZN4rive10SolidColor20renderOpacityChangedEv","__ZN4rive12StateMachineC1Ev","__ZN4rive21ArtboardComponentList16addVirtualizableEi","__ZN4rive9HitTester8testMeshENS_5Vec2DENS_4SpanIS1_EENS2_ItEE","__ZN13rive_facebook4yoga6detail3Log3logEP11rive_YGNode15rive_YGLogLevelPvPKcz","__ZThn144_N4rive12TargetEffect12updateEffectEPNS_12PathProviderEPKNS_14ShapePaintPathEPKNS_10ShapePaintE","_rive_png_gamma_significant","_rive_YGNodeGetChildCount","__ZThn2456_N4rive8ArtboardD0Ev","__Z19ma_atomic_vec3f_getP15ma_atomic_vec3f","_rive_YGNodeLayoutGetDirection","_VP8FiltersInit","__ZN4rive16PropertyRecorder21recordLinearAnimationEPKNS_15LinearAnimationE","_ma_dr_wav_open_file_and_read_pcm_frames_s16","_ma_sound_get_pinned_listener_index","__ZN4rive13TextStyleAxis16axisValueChangedEv","_stateMachineInstanceBatchAdvance","_ma_loshelf2_init","_ma_engine_start","_VP8GetInfo","_SBParagraphRetain","__ZN4rive8Artboard10updatePassEb","_ma_panner_get_mode","__Z18luaopen_rive_inputP9lua_State","__ZN4rive9TextInput12onAddedCleanEPNS_11CoreContextE","__ZN4rive14CursorPosition9fromLineXEjfRKNS_15FullyShapedTextE","__ZN4rive5Image8setAssetENS_3rcpINS_9FileAssetEEE","_WebPRescalerExport","__ZN4rive21AnimationResetFactory7releaseENSt3__110unique_ptrINS_14AnimationResetENS1_14default_deleteIS3_EEEE","__ZN4rive19CubicDetachedVertex17inDistanceChangedEv","_ma_hishelf2_get_latency","__ZN4rive19RectanglesToContour14isRectIncludedEm","_riveFileAssetCdnUuid","_ma_sound_set_start_time_in_pcm_frames","__ZNK4rive18DataConverterGroup5cloneEv","_rive_hb_ot_var_normalize_variations","__ZN4rive19ElasticInterpolator10initializeEv","__ZN4rive5ShapeC1Ev","__ZN4rive21ArtboardComponentList19internalDataContextENS_3rcpINS_11DataContextEEE","_ma_sound_get_engine","__ZN4rive11GroupEffect16invalidateEffectEPNS_12PathProviderE","_rive_png_ascii_from_fixed","__ZN4rive20LayoutComponentStyle15minWidthChangedEv","_rive_YGNodeStyleSetAlignSelf","__ZN4rive8Artboard7advanceEfNS_12AdvanceFlagsE","__ZN4rive9RectangleC2Ev","__ZNK4rive28ViewModelInstanceEnumRuntime8enumTypeEv","__ZThn400_N4rive15LayoutComponent18localClockwisePathEv","__ZN4rive26ViewModelInstanceViewModelD1Ev","_VP8BitReaderSetBuffer","__ZN4rive20FollowPathConstraint15constrainHelperERKNS_5Mat2DERS1_S3_","__ZN4rive12RawTextInput12moveCursorToENS_5Vec2DEb","_rive_png_set_compression_buffer_size","__ZN4rive7Factory10decodeFontENS_4SpanIKhEE","_rive_hb_ot_var_named_instance_get_design_coords","__ZN4rive13ClippingShapeD2Ev","__ZN4rive20ClampedScrollPhysics3runENS_5Vec2DES1_S1_NSt3__16vectorIS1_NS2_9allocatorIS1_EEEEff","__ZN4rive21ArtboardComponentList22attachArtboardOverrideEPNS_16ArtboardInstanceENS_3rcpINS_25ViewModelInstanceListItemEEE","_ma_gainer_process_pcm_frames","__ZN4rive20LayoutComponentStyle25flexDirectionValueChangedEv","__ZN4rive16BindableArtboardC1ENS_3rcpIKNS_4FileEEENSt3__110unique_ptrINS_16ArtboardInstanceENS5_14default_deleteIS7_EEEE","_luaL_checkvector","_luaL_addlstring","__ZN4rive3gpu23RenderContextHelperImpl14mapPaintBufferEm","_ma_sound_group_get_direction","_WebPSamplerProcessPlane","_WebPDecodeBGR","__ZN4rive3gpu13RenderContext12LogicalFlush17addClipReadBoundsEjRKNS_5TAABBIiEE","__ZN4rive11KeyedObject12onAddedDirtyEPNS_11CoreContextE","_rive_hb_buffer_add_utf8","__ZNK4rive23ElasticInterpolatorBase5cloneEv","_rive_YGNodeStyleSetMargin","__ZN4rive8Artboard16clearDataContextEv","__ZN4rive23CustomPropertyContainer20syncCustomPropertiesEv","_ma_dr_mp3_init_memory","__ZN4rive9Component6importERNS_11ImportStackE","__ZNK4rive18HitTestCommandPath10renderPathEv","_rive_png_get_x_pixels_per_meter","__ZN4rive3gpu18get_pipeline_stateERKNS0_9DrawBatchERKNS0_15FlushDescriptorERKNS0_16PlatformFeaturesEPNS0_13PipelineStateE","__ZN4rive7NSlicer11axisChangedEv","__ZN4rive17ScriptedPaintData11pushFeatherEP9lua_State","_ma_linear_resampler_init","__ZN4rive16BinaryDataReader8overflowEv","_rive_png_flush","__ZNK13rive_YGConfig14useWebDefaultsEv","_setViewModelInstanceTriggerValue","__ZN4rive17ScriptedViewModelD1Ev","_ma_peak2_reinit","_lua_tointegerx","__ZN4rive3gpu22RenderContextMetalImplC1EPU19objcproto9MTLDevice11objc_objectRKNS1_14ContextOptionsE","__ZN4rive29DataConverterSystemDegsToRads7convertEPNS_9DataValueEPNS_8DataBindE","_SBAlgorithmCreate","_WebPFree","_ma_paged_audio_buffer_data_get_length_in_pcm_frames","__ZN4rive17ViewModelInstance22replaceViewModelByNameERKNSt3__112basic_stringIcNS1_11char_traitsIcEENS1_9allocatorIcEEEENS_3rcpIS0_EE","__ZThn144_N4rive19ScriptInputArtboardD1Ev","__ZN4rive10LayerStateD0Ev","__ZNK4rive27ListenerViewModelChangeBase5cloneEv","_ma_dr_flac_open_relaxed","__ZN4rive14AnimationReset5clearEv","__ZThn432_N4rive4Text10updateListEPNSt3__16vectorINS_3rcpINS_25ViewModelInstanceListItemEEENS1_9allocatorIS5_EEEE","__ZN4rive27VertexPropertyListenerPointC2EPNS_4CoreEPNS_14VertexListenerEPNS_22ViewModelInstanceValueES6_tt","_SBLineGetRunsPtr","__ZN4rive12BinaryReader8readByteEv","__ZN4rive4FileC1EPNS_7FactoryENS_3rcpINS_15FileAssetLoaderEEE","_ma_pcm_rb_get_subbuffer_size","_lua_break","__ZN4rive8Triangle6updateENS_13ComponentDirtE","_makeRawText","_ma_fence_wait","__ZThn144_N4rive18ScriptInputBooleanD1Ev","__ZN4rive14NestedArtboard18hostTransformPointERKNS_5Vec2DEPNS_16ArtboardInstanceE","_rive_png_get_chunk_malloc_max","__ZN4rive19CubicDetachedVertex18outRotationChangedEv","__ZN4rive26StateMachineLayerComponentD0Ev","_crc32_combine_gen","_rive_hb_font_get_serial","__ZN4rive13ListenerGroupD0Ev","__ZN4rive27DataConverterOperationValue7convertEPNS_9DataValueEPNS_8DataBindE","__ZN4rive4Skin12onAddedDirtyEPNS_11CoreContextE","__ZN11rive_YGNodeC1EP13rive_YGConfig","_rive_hb_font_get_glyph_advance_for_direction","__ZN4rive16ScrollConstraint8dragViewENS_5Vec2DEf","__ZN4rive16BinaryDataReader13readVarUint32Ev","__ZN4rive14NSlicerDetails11addTileModeEiNS_19NSlicerTileModeTypeE","__ZN4rive3gpu23RenderContextHelperImpl25mapImageDrawUniformBufferEm","_ma_paged_audio_buffer_uninit","__ZN4rive20ElasticScrollPhysics7advanceEf","_VP8ProcessRow","_viewModelInstanceListItemViewModel","_ma_dr_wav_version_string","__ZN4rive7SMIBoolC2EPKNS_16StateMachineBoolEPNS_20StateMachineInstanceE","__ZN15WrappedDataBind8dataBindEv","__ZN4rive16ScrollConstraint17buildDependenciesEv","_yogaNodeCalculateLayout","__ZN4rive7PolygonD2Ev","__ZN4rive10LayerState13addTransitionEPNS_15StateTransitionE","__ZN4rive14GrTriangulator8simplifyEPNS0_10VertexListERKNS0_10ComparatorE","__ZThn376_N4rive14ScriptedLayout10scriptInitEP9lua_State","_rive_hb_blob_is_immutable","_fontAscent","_rive_hb_style_get_value","_luaL_checkunsigned","__ZNK4rive4File15artboardDefaultEv","_mapRenderBuffer","__ZNK4rive20ScriptedDrawableBase5cloneEv","_rive_hb_set_is_subset","_rive_hb_buffer_reverse_clusters","_rive_png_icc_check_length","__ZN4rive9BlobAsset6decodeERNS_11SimpleArrayIhEEPNS_7FactoryE","_lua_pushvfstring","_rive_YGNodeStyleSetWidth","__ZN4rive17ConstrainableList4fromEPNS_9ComponentE","_ma_node_get_state_by_time","_ma_sound_set_start_time_in_milliseconds","__ZN4rive3gpu13RenderContext12LogicalFlush17allocateAtlasDrawEPNS0_8PathDrawEtttPtS5_PNS_5TAABBItEE","_ma_lpf1_reinit","_rive_hb_unicode_funcs_get_empty","_rive_png_set_expand_gray_1_2_4_to_8","__ZN4rive10LayerState6importERNS_11ImportStackE","__ZNK4rive18DataEnumCustomBase5cloneEv","__ZN4rive17BackboardImporterC2EPNS_9BackboardE","_ma_context_sizeof","__ZN4rive15RiveRenderPaint10clipUpdateEj","__ZThn200_N4rive4Text11controlSizeENS_5Vec2DENS_15LayoutScaleTypeES2_NS_15LayoutDirectionE","__ZN4rive13ListenerGroup5resetEi","_ma_spatializer_config_init","_riveArtboardSetHeight","_rive_png_free_data","__ZN4rive3UTF7ToUTF16EjPt","_png_set_mDCV_fixed","__ZNK11rive_YGNode17resolveFlexShrinkEv","_rive_png_get_error_ptr","_rive_png_write_IEND","_WebPDecodeARGB","__ZN4rive12KeyFrameUint18applyInterpolationEPNS_4CoreEifPKNS_8KeyFrameEf","_artboardGetAllTextRuns","_ma_sound_group_get_cone","__ZN4rive14GrTriangulator4Edge11insertBelowEPNS0_6VertexERKNS0_10ComparatorE","_rive_hb_ot_shape_plan_collect_lookups","__ZNK4rive4Text5alignEv","__ZN4rive3gpu13ImageRectDrawC2EPNS0_13RenderContextENS_5TAABBIiEERKNS_5Mat2DENS_9BlendModeENS_3rcpINS0_7TextureEEENS_12ImageSamplerEf","_ma_data_converter_config_init_default","__ZThn144_N4rive19ScriptInputArtboard17initScriptedValueEv","__ZN4rive21ArtboardComponentList23createArtboardRecordersEPKNS_8ArtboardE","__ZN4rive28ViewModelInstanceListRuntime14removeInstanceEPNS_24ViewModelInstanceRuntimeE","_artboardDataContextFromInstance","__ZN4rive18TextInputSelection7hitTestEPNS_7HitInfoERKNS_5Mat2DE","_ma_engine_node_uninit","__ZN4rive16PropertyRecorder5applyEPNS_20StateMachineInstanceE","_ma_notch_node_reinit","_rive_hb_set_is_inverted","_fileEnums","__Z18luaopen_rive_mat2dP9lua_State","__ZN4rive10SolidColor7applyToEPNS_11RenderPaintEf","__ZN4rive20StateMachineListener9addActionENSt3__110unique_ptrINS_14ListenerActionENS1_14default_deleteIS3_EEEE","_lua_setfield","__ZThn2480_N4rive8Artboard16addDirtyDataBindEPNS_8DataBindE","_rive_png_set_packing","__ZNK4rive12BinaryReader10reachedEndEv","__ZNK4rive15RiveRenderPaint22getGradientWithOpacityEf","_WebPDequantizeLevels","__ZN15WrappedArtboard11addDataBindEP15WrappedDataBind","__ZN4rive18TransformComponent13addConstraintEPNS_10ConstraintE","__ZN4rive15DataBindContext15bindFromContextEPNS_11DataContextE","_makeVertexRenderBuffer","_rive_png_get_header_ver","__ZNK4rive8Artboard12stateMachineEm","_rive_png_write_rows","__ZN4rive17BackboardImporter22addFileAssetReferencerEPNS_19FileAssetReferencerE","__ZN4rive25DataConverterNumberToList4fileEPNS_4FileE","__ZN4rive18HitTestCommandPathC2ERKNS_5TAABBIiEE","_rive_hb_buffer_set_user_data","__ZN4rive18HitTestCommandPath5closeEv","_ma_sound_group_get_pan","__ZN4rive24DataBindContextValueList13applyToSourceEPNS_4CoreEjb","_VP8EnterCritical","_rive_hb_font_get_var_coords_normalized","__ZNK4rive7RawPath5addToEPNS_11CommandPathE","__ZN4rive20BlendState1DInstanceD1Ev","__ZNK4rive11ElasticEase6easeInEf","__ZN4rive12KeyFrameBool5applyEPNS_4CoreEif","_rive_hb_font_get_glyph_h_advance","_rive_hb_buffer_diff","_rawTextIsEmpty","__ZNK4rive28DataConverterRangeMapperBase5cloneEv","_lua_rawgetfield","_rive_hb_buffer_get_not_found_glyph","_ma_sound_group_set_spatialization_enabled","_rive_hb_font_funcs_set_glyph_v_advance_func","__ZN4rive3gpu13RenderContext14generateClipIDERKNS_5TAABBIiEE","_rive_hb_ot_layout_language_get_feature_tags","__ZN4rive21DataConverterToString18colorFormatChangedEv","_rive_png_write_cHRM_fixed","__ZNK11rive_YGNode18marginLeadingValueE20rive_YGFlexDirection","__ZN4rive17DataBindContainer15unbindDataBindsEv","__ZN4rive12BinaryReader5resetEv","__ZN4rive20LayoutComponentStyle24positionTypeValueChangedEv","_setViewModelInstanceEnumValue","__ZNK4rive27BindablePropertyBooleanBase5cloneEv","__ZN4rive20DataBindContextValueC1EPNS_8DataBindE","__ZN4rive18ScriptedPathEffect16advanceComponentEfNS_12AdvanceFlagsE","__Z22ma_mp3_read_pcm_framesP6ma_mp3PvyPy","__ZN4rive12StateMachine8addInputENSt3__110unique_ptrINS_17StateMachineInputENS1_14default_deleteIS3_EEEE","_rive_hb_font_get_glyph_advances_for_direction","__ZN4rive16ScriptedPropertyC1EP9lua_StateNS_3rcpINS_22ViewModelInstanceValueEEE","_rive_jpeg_mem_term","__ZN4rive14NSlicerDetails10patchIndexEii","_lua_newuserdatataggedwithmetatable","_rive_png_combine_row","_lua_lightuserdatatag","__ZN4rive12TextModifier12onAddedDirtyEPNS_11CoreContextE","__ZN4rive3gpu21find_transformed_areaERKNS_4AABBERKNS_5Mat2DE","__ZN4rive22ViewModelInstanceColor20propertyValueChangedEv","_lua_getlightuserdataname","_triggerVMITriggerRuntime","_ma_data_source_read_pcm_frames","_ma_sound_group_set_cone","__ZN4rive22DataConverterOperation12convertValueEPNS_9DataValueEf","_VP8LHtreeGroupsNew","_rive_hb_font_get_var_named_instance","__ZN4rive8Artboard8yChangedEv","__ZN4rive17TextModifierGroup14originYChangedEv","__ZN4rive20StateMachineInstance6unbindEv","__ZThn408_N4rive21ArtboardComponentList12layoutBoundsEv","_ma_fader_set_fade_ex","_rive_hb_buffer_get_glyph_positions","_rive_hb_version","_yogaStyleGetGap","__ZN4rive31DataConverterOperationViewModel14reverseConvertEPNS_9DataValueEPNS_8DataBindE","__ZN4rive16ArtboardImporter11addDataBindEPNS_8DataBindE","_componentSetX","__ZN4rive21ViewModelPropertyEnum8dataEnumEPNS_8DataEnumE","__ZN4rive12GradientStop12onAddedDirtyEPNS_11CoreContextE","__Z20ma_atomic_vec3f_initP15ma_atomic_vec3f8ma_vec3f","__ZN4rive23LinearAnimationInstance11reportEventEPNS_5EventEf","__ZN15WrappedArtboard8artboardEv","__ZN4rive7RawPath9addPointsERNSt3__116reverse_iteratorINS1_11__wrap_iterIPKNS_5Vec2DEEEEEiPKNS_5Mat2DE","_rive_png_do_packswap","__ZN4rive7RawPath7addPathERKS0_PKNS_5Mat2DE","__ZN4rive11AudioEngineC1EP9ma_engineP10ma_context","_riveFileAssetId","_hydro_equal","_ma_channel_converter_config_init","_ma_dr_flac_read_pcm_frames_s32","_SBMirrorLocatorReset","_ma_sound_group_get_direction_to_listener","__ZN4rive28DataConverterFormulaImporter7resolveEv","__Z10ma_dlcloseP6ma_logPv","_rive_hb_draw_line_to","_yogaStyleSetMinDimension","_VP8InitBitReader","__ZN4rive9TextInput11textChangedEv","__ZN4rive4File4readERNS_12BinaryReaderERKNS_13RuntimeHeaderE","_rive_hb_face_collect_unicodes","__ZN4rive14GrTriangulator18FindEnclosingEdgesERKNS0_6VertexERKNS0_8EdgeListEPPNS0_4EdgeES9_","__ZN4rive21NestedLinearAnimationD1Ev","__ZN4rive18TransformComponent16mutableTransformEv","__ZNK4rive15LayoutComponent11isCollapsedEv","__ZThn168_N4rive11ScriptAsset20registrationCompleteEi","_rawTextBackspace","__ZN4rive14RiveRenderPath7cubicToEffffff","__ZN4rive26ViewModelInstanceViewModelD0Ev","_componentSetY","__ZN4rive3gpu22RenderContextMetalImplD0Ev","_rive_YGNodeStyleGetAlignContent","__ZNK4rive16PointsCommonPath11isClockwiseEv","_setViewModelInstanceSymbolListIndexCallback","__ZNK4rive4Bone19tipWorldTranslationEv","_hb_buffer_set_not_found_variation_selector_glyph","__ZN4rive12RawTextInput8fontSizeEf","_ma_sound_group_get_pinned_listener_index","__ZNK4rive23TransformConstraintBase5cloneEv","_rive_YGNodeStyleSetPosition","__Z12ma_vec3f_len8ma_vec3f","__ZN4rive10ShapePaint17invalidateEffectsEPNS_12StrokeEffectE","__ZNK11rive_YGNode17getTrailingBorderE20rive_YGFlexDirection","__ZN4rive18NestedStateMachineD1Ev","_ma_sound_group_set_pan_mode","_rive_hb_draw_funcs_set_line_to_func","_ma_bpf_get_latency","__ZNK4rive27ScriptedTransitionCondition19cloneScriptedObjectEPNS_17DataBindContainerE","__ZN4rive12RiveRenderer11ClipElementD1Ev","_ma_fader_process_pcm_frames","_ma_panner_get_pan","_rive_png_set_gamma","__ZN4rive14NestedArtboard6updateENS_13ComponentDirtE","__ZNK4rive24ViewModelInstanceRuntime13propertyImageERKNSt3__112basic_stringIcNS1_11char_traitsIcEENS1_9allocatorIcEEEE","__ZNK4rive4Dash16normalizedLengthEfb","_lua_tonumberx","__ZN4rive8DataBind6importERNS_11ImportStackE","__ZN4rive8DataEnum5valueENSt3__112basic_stringIcNS1_11char_traitsIcEENS1_9allocatorIcEEEE","__ZN4rive8TrimPath16createEffectPathEv","__Z9luaB_nextP9lua_State","__ZN4rive15LayoutComponent14animationStyleEv","__ZNK4rive4File5enumsEv","__ZN4rive8Artboard15advanceInternalEfNS_12AdvanceFlagsE","_rive_YGNodeStyleSetJustifyContent","__ZN4rive20LayoutComponentStyle19paddingRightChangedEv","_ma_context_is_loopback_supported","_lua_touserdata","_rive_hb_unicode_funcs_set_combining_class_func","__ZNK4rive36TransitionValueTriggerComparatorBase5cloneEv","_ma_log_init","_ma_sound_get_velocity","_ma_hpf1_reinit","_rive_jpeg_idct_4x4","__ZN4rive4AABBC2ENS_4SpanINS_5Vec2DEEE","__ZN4rive8Artboard15addToRenderPathEPNS_10RenderPathERKNS_5Mat2DE","__ZN4rive19ElasticInterpolatorC2Ev","_luau_load","__ZN4rive18TextTargetModifier12onAddedDirtyEPNS_11CoreContextE","_ma_resampler_get_required_input_frame_count","__ZNK4rive15LinearAnimation9startTimeEf","__tr_flush_block","__ZN4rive16ScrollConstraint10runPhysicsEv","_rive_jinit_d_main_controller","_componentGetWorldTransform","_ma_fence_release","__ZN4rive8Artboard16sortDependenciesEv","_rive_png_write_info_before_PLTE","__ZN4rive12StateMachine12onAddedCleanEPNS_11CoreContextE","__ZN4rive16ArtboardImporter14readNullObjectEv","__ZN4rive18HitTestCommandPath7cubicToEffffff","_ma_device_init","__ZN4rive22DataBindPathReferencerD2Ev","_lua_encodepointer","__ZN4rive29ViewModelInstanceColorRuntime3rgbEiii","_ma_mutex_uninit","__ZN4rive18DataConverterGroupD2Ev","__ZN4rive18NestedStateMachine5inputEm","__ZN4rive5Event7triggerERKNS_12CallbackDataE","_ma_lpf1_init","_yogaStyleSetDisplay","__ZThn168_N4rive21ScriptedDataConverterD1Ev","__ZN4rive14AnimationReset16writePropertyKeyEj","__ZN4rive23StateTransitionImporterC2EPNS_15StateTransitionE","_rive_png_do_strip_channel","__ZN4rive21ArtboardComponentList4fileEPNS_4FileE","_luaL_optlstring","__ZThn416_N4rive9TextInput8keyInputENS_3KeyENS_12KeyModifiersEbb","_ma_decoder_config_init_default","__Z21luaopen_rive_rendererP9lua_State","_ma_free","__ZN4rive9TextInput14markPaintDirtyEv","__ZN4rive17TextModifierRange16falloffToChangedEv","__ZN4rive20DataBindPathImporterC2EPNS_12DataBindPathE","_ma_dr_wav_open_and_read_pcm_frames_s32","__ZN4rive16ScrollConstraint15scrollItemCountEv","__ZNK4rive6Cursor8containsEj","__ZN4rive20TextValueRunPropertyC1EPNS_4CoreEPNS_20TextValueRunListenerEPNS_22ViewModelInstanceValueEtNS_10SymbolTypeE","__ZNK4rive22CubicValueInterpolator9transformEf","_rive_hb_unicode_decompose","_ma_data_converter_config_init","__ZN4rive14ScriptedObject13scriptAdvanceEf","__ZNK4rive12StateMachine5layerEm","__ZNK4rive4Fill8pickPathEPNS_19ShapePaintContainerE","__ZNK4rive4Path8deformerEv","__ZNK4rive26ViewModelInstanceColorBase5cloneEv","_stateMachineInstanceBoolean","__ZN4rive21ViewModelInstanceList20propertyValueChangedEv","__ZN4rive8Joystick13addDependentsEPNS_8ArtboardE","_ma_pcm_s24_to_f32","__ZN4rive12BinaryReader8overflowEv","__ZN4rive3gpu23RenderContextHelperImpl17mapGradSpanBufferEm","_lua_resumeerror","_ma_hishelf_node_config_init","__ZN4rive20TextValueRunListenerC1EPNS_12TextValueRunENS_3rcpINS_17ViewModelInstanceEEEPNS_4TextE","__ZN4rive20LayoutComponentStyle18positionTopChangedEv","__ZNK4rive27ViewModelInstanceStringBase5cloneEv","__ZN4rive23LinearAnimationInstanceD2Ev","_ma_sound_group_get_volume","_ma_data_converter_uninit","__ZN4rive11DataContext20getViewModelPropertyEPNS_12DataBindPathE","__ZN4rive12RawTextInput4flagENS0_5FlagsE","__ZN4rive13ListenerGroupD2Ev","__ZN4rive15LayoutComponentD2Ev","__ZThn32_N4rive22ScriptedListenerAction11addPropertyEPNS_14CustomPropertyE","__ZN4rive22ScriptedListenerAction19disposeScriptInputsEv","_lua_rawsetptagged","_rive_hb_set_invert","__ZN4rive8DataBind4fileEPNS_4FileE","_ma_sound_set_pan","_ma_biquad_node_init","_rive_hb_font_funcs_set_glyph_extents_func","_rive_png_get_x_offset_microns","__ZN4rive21BlendState1DViewModelD0Ev","__ZN4rive7Ellipse6updateENS_13ComponentDirtE","__ZN4rive20LayoutComponentStyle16positionTopUnitsEv","_VP8LPredictor10_C","__ZN4rive8Artboard14takeLayoutDataEv","__ZNK4rive14NestedArtboard5cloneEv","__ZN4rive13ListenerGroup5hoverEi","__ZNK4rive11ElasticEase9easeInOutEf","_ma_resampler_init_preallocated","__ZThn408_N4rive21ArtboardComponentList19markLayoutNodeDirtyEb","__ZN4rive12DataBindPath4fileEPNS_4FileE","__ZN4rive21ArtboardComponentList10updateListEPNSt3__16vectorINS_3rcpINS_25ViewModelInstanceListItemEEENS1_9allocatorIS5_EEEE","__ZNK4rive24ViewModelInstanceRuntime16replaceViewModelERKNSt3__112basic_stringIcNS1_11char_traitsIcEENS1_9allocatorIcEEEEPS0_","__ZN4rive6Stroke7applyToEPNS_11RenderPaintEf","_renderPathPreciseBounds","__ZN4rive3gpu13RenderContext12LogicalFlushC2EPS1_","_ma_channel_position_to_string","__ZN4rive22TextFollowPathModifier13offsetChangedEv","_ma_lpf1_get_heap_size","__ZN13ReadWriteRingC1Ev","__ZN4rive19RectanglesToContour14addUniquePointERKNS_5Vec2DE","__ZN4rive20DataConverterFormulaD1Ev","_ma_audio_buffer_ref_map","_ma_convert_pcm_frames_format","__ZN4rive22DataBindPathReferencerD1Ev","_rive_hb_ot_font_set_funcs","__ZN4rive18HitTestCommandPath6wasHitEv","_ma_data_source_node_is_looping","__ZN13rive_YGConfig9setLoggerEPFiPS_P11rive_YGNode15rive_YGLogLevelPvPKcPcE","__ZN4rive13DataConverter16addDirtyDataBindEPNS_8DataBindE","__ZN4rive20ScriptedPropertyListD1Ev","_rive_jpeg_stdio_src","__ZNK4rive20BlendStateDirectBase5cloneEv","__ZN4rive9Component7addDirtENS_13ComponentDirtEb","__ZN4rive16PropertyRecorder5clearEv","__ZN4rive4Solo13updateByIndexEm","_rive_YGNodeStyleGetMaxHeight","__ZNK4rive24ListenerNumberChangeBase5cloneEv","__ZN4rive19HitScriptedDrawable10methodNameEbNS_12ListenerTypeE","__ZNK4rive11PathMeasure10atDistanceEf","__ZN4rive14CursorPosition7atIndexEjRKNS_15FullyShapedTextE","__ZNK4rive8Artboard11worldBoundsEv","_rive_png_set_text_2","__ZN4rive12RawTextInput6insertEj","_rive_png_do_read_transformations","__ZN4rive5Shape17buildDependenciesEv","__ZN4rive3gpu23RenderContextHelperImpl28resizeImageDrawUniformBufferEm","__ZNK4rive4File8artboardENSt3__112basic_stringIcNS1_11char_traitsIcEENS1_9allocatorIcEEEE","__ZN4rive12BinaryWriterC1EPNS_12BinaryStreamE","__ZN4rive25InterpolatorAnimationData4copyERKS0_","__ZN4rive21DataConverterToNumber12convertColorEPNS_14DataValueColorE","_lua_rawgetptagged","__ZN4rive14NSlicerHelpers14analyzeUVStopsERKNSt3__16vectorIfNS1_9allocatorIfEEEEff","__ZN4rive13ListenerGroup12processEventEPNS_9ComponentENS_5Vec2DEiNS_12ListenerTypeEbfPNS_20StateMachineInstanceE","_ma_delay_process_pcm_frames","__ZN4rive13ClippingShape12onAddedCleanEPNS_11CoreContextE","_rive_hb_buffer_reset","_rive_hb_ot_tags_from_script_and_language","__ZN4rive3gpu24BackgroundShaderCompilerD1Ev","__ZN4rive16ScrollConstraint17isBoundsCollapsedENS_4AABBE","__ZNK4rive11PathMeasure10getSegmentEffPNS_7RawPathEb","__ZN4rive20NestedArtboardLayout16syncStyleChangesEv","_ma_engine_listener_set_direction","_ma_lpf1_uninit","_ma_gainer_uninit","__ZN4rive20LayoutComponentStyle16scaleTypeChangedEv","__ZNK4rive18LinearGradientBase5cloneEv","__ZN4rive16ScrollConstraint14clampedOffsetXEv","_ma_hpf2_uninit","_enableFallbackFonts","__ZN4rive3gpu13RenderContext18mapResourceBuffersERKNS1_24ResourceAllocationCountsE","_VP8LInitBitReader","__ZN4rive4Solo8collapseEb","__ZN4rive20LayoutComponentStyle18paddingBottomUnitsEv","__ZN4rive36TransitionViewModelConditionImporterC1EPNS_28TransitionViewModelConditionE","_rive_YGNodeMarkDirtyAndPropagateToDescendants","__ZN4rive20LayoutComponentStyle21cornerRadiusTLChangedEv","__ZNK4rive29ViewModelInstanceListItemBase5cloneEv","_VP8LPredictor13_C","_WebPDeallocateAlphaMemory","__ZNK11rive_YGNode26getLeadingPaddingAndBorderE20rive_YGFlexDirectionf","_ma_audio_buffer_ref_get_length_in_pcm_frames","_ma_engine_listener_get_cone","_ma_dr_mp3_open_and_read_pcm_frames_s16","__ZN4rive19TransformConstraint14originXChangedEv","__ZN4rive9colorARGBEiiii","_rive_hb_buffer_set_script","__ZN4rive7RawPath16transformInPlaceERKNS_5Mat2DE","_luaL_register","__ZN4rive21AnimationResetFactory14fromAnimationsERNSt3__16vectorIPKNS_15LinearAnimationENS1_9allocatorIS5_EEEEPNS_16ArtboardInstanceEb","__ZNK4rive16NestedNumberBase5cloneEv","__ZN4rive28ScriptInputViewModelProperty6importERNS_11ImportStackE","_ma_splitter_node_uninit","_ma_linear_resampler_get_expected_output_frame_count","__ZN4rive21ViewModelInstanceList5shiftEv","__ZN4rive28ScriptInputViewModelProperty17initScriptedValueEv","__ZN4rive23DataConverterStringTrim15trimTypeChangedEv","_ma_job_queue_init","__ZNK4rive24NestedArtboardLayoutBase5cloneEv","_lua_breakpoint","_ma_spatializer_listener_set_position","_rive_YGNodeIsDirty","_SBParagraphCreateLine","__ZN4rive20colorModulateOpacityEjf","__ZNK4rive14GrTriangulator16polysToTrianglesEPNS0_4PolyEytbbNS_3gpu12WindingFacesEPNS3_21WriteOnlyMappedMemoryINS3_14TriangleVertexEEE","__ZThn448_N4rive8ArtboardD1Ev","_lua_pushstring","__ZN4rive8DataBind11isNameBasedEv","_ma_sound_stop","_ma_sound_group_is_playing","_rive_png_set_invert_alpha","_WebPSafeCalloc","__ZN4rive20ClampedScrollPhysics7advanceEf","__ZN4rive4Text23paragraphSpacingChangedEv","__ZN4rive5Shape18canDeferPathUpdateEv","_riveArtboardGetOriginalHeight","__Z16ma_copy_string_wPKwPK23ma_allocation_callbacks","__ZN4rive8ArtboardD1Ev","__ZN4rive13DataConverterD0Ev","_ma_pulsewave_set_duty_cycle","__ZN4rive15LinearAnimationD2Ev","_hb_coretext_face_create_from_file_or_fail","_ma_data_converter_process_pcm_frames","_fontFeatures","__ZN4rive20DataConverterFormula15bindFromContextEPNS_11DataContextEPNS_8DataBindE","__ZThn168_N4rive21ScriptedDataConverter10scriptInitEP9lua_State","__ZNK4rive20FollowPathConstraint15targetTransformEf","__ZN4rive19ScrollBarConstraint9dragThumbENS_5Vec2DE","__ZN4rive17ViewModelProperty6importERNS_11ImportStackE","_ma_offset_pcm_frames_const_ptr","__ZN4rive10ContourItrppEv","_ma_dr_wav_open_file_and_read_pcm_frames_s32_w","__ZThn176_N4rive8DashPath11parentPaintEv","_WebPInitDecBufferInternal","__ZNK4rive8Artboard20sharesLayoutWithHostEv","_ma_bpf_config_init","__ZN4rive29ArtboardComponentListOverride31instanceHeightUnitsValueChangedEv","_ma_audio_buffer_ref_unmap","_rive_jpeg_set_marker_processor","_ma_hishelf2_uninit","_rive_hb_set_copy","__ZN4rive9ViewModel8instanceERKNSt3__112basic_stringIcNS1_11char_traitsIcEENS1_9allocatorIcEEEE","__ZN4rive20LayoutComponentStyle19markLayoutNodeDirtyEv","_hydro_bin2hex","__ZN4rive28ScriptInputViewModelProperty21decodeDataBindPathIdsENS_4SpanIKhEE","__ZNK4rive17ViewModelInstance5cloneEv","__ZNK4rive10StrokeBase5cloneEv","__ZNK4rive11KeyedObject20reportKeyedCallbacksEPNS_21KeyedCallbackReporterEffb","_lua_callbacks","__ZN4rive20FollowPathConstraint6updateENS_13ComponentDirtE","__ZNK4rive8Artboard15animationNameAtEm","__ZN4rive20StateMachineInstance15updateListenersENS_5Vec2DENS_12ListenerTypeEif","__ZN4rive10AudioSoundC1EPNS_11AudioEngineENS_3rcpINS_11AudioSourceEEEPNS_8ArtboardE","_luaL_typeerrorL","__ZN4rive11ScriptingVM14registerScriptEP9lua_StatePKcNS_4SpanIhEE","_crc32_combine_gen64","__ZN4rive24ListFollowPathConstraint17buildDependenciesEv","__Z28ma_get_format_priority_index9ma_format","__ZN4rive27ViewModelInstanceAssetImage5valueEPNS_11RenderImageE","__ZN4rive3gpu23RenderContextHelperImpl21mapFlushUniformBufferEm","__ZN4rive27VertexPropertyListenerMulti10writeValueEv","__ZN4rive14LinearGradient6updateENS_13ComponentDirtE","_ma_sound_group_set_velocity","_rive_png_get_valid","__ZN4rive16ViewModelRuntime10propertiesEv","_ma_job_queue_config_init","__ZN4rive4Star11vertexCountEv","_ma_loshelf2_reinit","__ZNK4rive8SMIInput4nameEv","_rive_hb_draw_funcs_reference","_rive_hb_ot_metrics_get_x_variation","__ZNK4rive17ViewModelInstance9viewModelEv","__ZNK4rive14NestedBoolBase5cloneEv","__ZN4rive3gpu16StencilClipResetC2EPNS0_13RenderContextEjNS0_12DrawContentsENS1_11ResetActionE","__ZN4rive17ScrollVirtualizer11getItemSizeEPNS_18LayoutNodeProviderEib","__ZN4rive8Artboard13sortDrawOrderEv","__Z17luaopen_rive_pathP9lua_State","__ZThn376_N4rive16ScriptedDrawable15markNeedsUpdateEv","__ZNK4rive16ViewModelRuntime21createDefaultInstanceEv","__Z20rive_YGFloatSanitizef","__ZN4rive16ScrollConstraint20maxOffsetXForPercentEv","__ZNK4rive4Font9shapeTextENS_4SpanIKjEENS1_IKNS_7TextRunEEEi","__ZNK4rive4Text17styleFromShaperIdEt","__ZN4rive18ScriptInputTrigger20propertyValueChangedEv","__ZN4rive20ScriptedPropertyListD0Ev","_ma_paged_audio_buffer_data_init","_riveFileAssetSetFont","_rive_hb_unicode_funcs_set_decompose_func","_ma_semaphore_wait","__ZN4rive17ViewModelInstance9viewModelEPNS_9ViewModelE","_SBCodepointSequenceGetCodepointAt","__Z24ma_vfs_or_default_open_wPvPKwjPS_","__ZThn176_N4rive19ScriptInputArtboard20referencedArtboardIdEv","__ZN4rive19CubicDetachedVertex18outDistanceChangedEv","__ZN4rive4Text18modifierShapeDirtyEv","_ma_sound_group_get_positioning","__ZN11rive_YGNode30markDirtyAndPropagateDownwardsEv","__ZN4rive17ScriptedAnimation7advanceEv","__ZNK4rive22ScriptedListenerAction5cloneEv","_WebPAvoidSlowMemory","_luaL_traceback","_ma_node_init_preallocated","__ZN4rive13KeyFrameColor18applyInterpolationEPNS_4CoreEifPKNS_8KeyFrameEf","__ZNK4rive23CubicMirroredVertexBase5cloneEv","_ma_device_post_init","_ma_dr_wav_mulaw_to_f32","_rive_png_get_user_width_max","__ZN4rive8DataBind6unbindEv","_engineTime","__ZNK4rive4File24defaultArtboardViewModelEPNS_8ArtboardE","__ZN4rive13KeyedPropertyD2Ev","_rive_hb_unicode_funcs_set_script_func","_luaL_buffinitsize","__ZN4rive11NSlicedNode11axisChangedEv","__ZN4rive8DataBind10outputTypeEv","__ZN4rive8DataBind9containerEPNS_17DataBindContainerE","_artboardDraw","_ma_fader_get_data_format","__ZN4rive18ScriptedPathEffect15markNeedsUpdateEv","_zcalloc","__Z14ma_copy_stringPKcPK23ma_allocation_callbacks","__ZN4rive13TextInputText18localClockwisePathEv","__ZN4rive14LinearGradient12onAddedDirtyEPNS_11CoreContextE","__ZN4rive8Artboard15validateObjectsEv","__ZN4rive21NestedLinearAnimationD2Ev","__ZN4rive28ViewModelInstanceListRuntime16removeInstanceAtEi","_ma_dr_wav_f64_to_s32","_SBScriptLocatorMoveNext","__ZN4rive17ViewModelInstanceD1Ev","_rive_YGNodeStyleGetFlexBasis","__ZN4rive12NestedNumber11nestedValueEf","__ZNK4rive24FollowPathConstraintBase5cloneEv","_artboardName","__ZN4rive21DataConverterToNumber7convertEPNS_9DataValueEPNS_8DataBindE","__ZNK4rive4Bone1yEv","__Z18ma_wav_init_memoryPKvmPK26ma_decoding_backend_configPK23ma_allocation_callbacksP6ma_wav","__ZNK4rive11FeatherBase5cloneEv","_SBAlgorithmCreateParagraph","_ma_dr_flac_next_vorbis_comment","__ZN4rive14ShapePaintPath7addPathERKNS_7RawPathEPKNS_5Mat2DE","__ZThn536_N4rive20NestedArtboardLayout10layoutNodeEi","__ZN4rive3gpu24StorageTextureBufferSizeEmNS0_22StorageBufferStructureE","__ZN4rive4Node8xChangedEv","__ZThn392_N4rive21ArtboardComponentList16advanceComponentEfNS_12AdvanceFlagsE","_ma_sound_get_cursor_in_seconds","__ZN4rive13ClippingShapeD0Ev","__ZN4rive16ScriptedPathDataC2EPKNS_7RawPathE","_adler32_combine","__ZN4rive16ArtboardInstanceC2Ev","__ZN15WrappedArtboard6notifyERKNSt3__16vectorIN4rive11EventReportENS0_9allocatorIS3_EEEEPNS2_14NestedArtboardE","__ZN4rive4File25viewModelInstanceListItemENS_3rcpINS_17ViewModelInstanceEEE","__ZN4rive16BlendAnimation1D12onAddedDirtyEPNS_11CoreContextE","__Z22ma_vfs_or_default_tellPvS_Px","__ZN4rive18HitTestCommandPath6rewindEv","__ZN4rive18NestedStateMachineC1Ev","__ZN4rive8DashPath16createEffectPathEv","_rive_hb_font_get_v_extents","__ZThn536_N4rive20NestedArtboardLayout18updateLayoutBoundsEb","__ZN4rive10SolidColor17colorValueChangedEv","__ZN4rive14ScriptedObject19disposeScriptInputsEv","_stateMachineGetReportedEventCount","__ZThn400_N4rive15LayoutComponent11pathBuilderEv","_animationInstanceApply","__ZN13rive_facebook4yoga29configUpdateInvalidatesLayoutEP13rive_YGConfigS2_","_ma_job_queue_next","__ZN4rive18ScriptInputBoolean20propertyValueChangedEv","__ZN4rive12RiveRenderer6IsAABBERKNS_7RawPathEPNS_4AABBE","__ZN4rive8Artboard7hitTestEPNS_7HitInfoERKNS_5Mat2DE","__ZN4rive34StateMachineLayerComponentImporter12addFireEventEPNS_22StateMachineFireActionE","_getTextRunFromArray","__ZNK4rive20TextStyleFeatureBase5cloneEv","__ZN4rive21ArtboardComponentList11setItemSizeENS_5Vec2DEi","_rive_hb_ot_var_get_named_instance_count","__ZN4rive28StateMachineListenerImporter9addActionENSt3__110unique_ptrINS_14ListenerActionENS1_14default_deleteIS3_EEEE","__ZN4rive21ViewModelInstanceListD1Ev","__ZThn144_N4rive10SolidColor20renderOpacityChangedEv","_ma_context_get_device_info","_rive_png_write_zTXt","_ma_dr_wav_write_pcm_frames_le","__ZN4rive28ScriptInputViewModelPropertyD0Ev","__ZN4rive3gpu13RenderContext18TessellationWriterC1EPNS1_12LogicalFlushEjNS0_17ContourDirectionsEjjjj","__ZN4rive27DataBindContextValueTriggerC1EPNS_8DataBindE","__ZNK6HBFont7getPathEt","__ZNK4rive16OpenUrlEventBase5cloneEv","__ZN4rive4Path13isHoleChangedEv","__ZNK6HBFont9getWeightEv","_rive_YGNodeStyleGetMaxWidth","__ZN4rive15lua_toblendmodeEP9lua_Statei","__ZN4rive9TextStyle17lineHeightChangedEv","__ZNK4rive5Shape9isFlaggedENS_9PathFlagsE","__ZNK4rive21StateMachineFireEvent7performEPNS_20StateMachineInstanceE","_rive_png_access_version_number","__ZN4rive37TransitionPropertyViewModelComparatorD0Ev","__ZN4rive12IKConstraint6solve1EPNS0_13BoneChainLinkERKNS_5Vec2DE","__ZN4rive16BinaryDataReader5resetEPh","__ZNK4rive27ViewModelPropertyStringBase5cloneEv","__ZN18FlutterIndexBufferD1Ev","_rive_YGNodeSetConfig","_ma_hpf1_init","_WebPGrabDecBuffer","__ZN4rive11RenderImageC1Ev","__ZN4rive9Component8collapseEb","__ZN4rive8Artboard26syncStyleChangesWithUpdateEb","_deleteTextValueRun","_ma_dr_wav_init_memory_ex","__ZN4rive22CubicValueInterpolatorC2Ev","__ZNK4rive16FormulaTokenBase5cloneEv","__ZN4rive17ViewModelInstance6importERNS_11ImportStackE","_rive_YGNodeStyleSetHeight","_setViewModelInstanceListCallback","__ZNK4rive15CubicWeightBase5cloneEv","_rive_YGNodeLayoutGetHeight","_rawTextInputCursorPosition","_rawTextGetAlign","__ZN4rive23CustomPropertyContainer14removePropertyEPNS_14CustomPropertyE","__ZNK4rive14GrTriangulator14pathToContoursERKNS_7RawPathEfRKNS_4AABBEPNS0_10VertexListEPb","__ZN4rive20InterpolatorAdvancer7advanceEf","_rive_hb_set_previous_range","__ZNK4rive37TransitionValueArtboardComparatorBase5cloneEv","__ZN13rive_YGConfig9setLoggerEPFiPS_P11rive_YGNode15rive_YGLogLevelPKcPcE","_lua_resume","__ZN4rive21ArtboardComponentList4sizeEv","__ZN4rive12IKConstraint17buildDependenciesEv","__ZN4rive12RiveRendererD2Ev","__ZN4rive28DataConverterFormulaImporterC1EPNS_20DataConverterFormulaE","_rive_hb_set_clear","__ZN4rive3gpu13RenderContext12LogicalFlush27allocateCoverageBufferRangeEm","_rive_hb_font_funcs_reference","__ZN4rive16PropertyRecorder13writeObjectIdEjRNS_18VectorBinaryWriterE","__ZN4rive30DataConverterStringRemoveZeros7convertEPNS_9DataValueEPNS_8DataBindE","_ma_spatializer_get_cone","_ma_dr_mp3_seek_to_pcm_frame","__ZN4rive18ScriptInputTriggerD1Ev","__ZN4rive18DataConverterGroup7advanceEf","__ZNK4rive12RawTextInput8classifyENS_14CursorPositionE","_inflateInit_","__ZN4rive13ListenerGroup11canEarlyOutEPNS_9ComponentE","__ZN4rive19CubicDetachedVertex10computeOutEv","__ZN4rive8DataEnumD2Ev","__ZNK4rive12RawTextInput4textEv","_ma_slot_allocator_init","__ZN4rive3gpu13RenderContext21isOutsideCurrentFrameERKNS_5TAABBIiEE","__ZN4rive21ViewModelInstanceList7addItemENS_3rcpINS_25ViewModelInstanceListItemEEE","__ZN4rive21ArtboardComponentList17updateConstraintsEv","__ZN4rive22ViewModelInstanceValue17viewModelPropertyEv","__ZN4rive29ArtboardComponentListOverride22markHostingLayoutDirtyEPNS_16ArtboardInstanceE","__ZN4rive27VertexPropertyListenerPointD0Ev","__ZN4rive9TextStyle10addFeatureEPNS_16TextStyleFeatureE","__ZN4rive13ClippingShape12onAddedDirtyEPNS_11CoreContextE","__ZN4rive17StateMachineInput6importERNS_11ImportStackE","__ZN4rive3gpu13RenderContext12LogicalFlush15resetContainersEv","_rive_jpeg_idct_15x15","_WebPDemuxGetFrame","_ma_paged_audio_buffer_data_allocate_page","__ZN4rive20LayoutComponentStyle16maxHeightChangedEv","_rive_hb_font_get_parent","__ZN4rive15LayoutComponent23propagateSizeToChildrenEPNS_18ContainerComponentE","_rive_hb_font_get_scale","__ZN4rive8DataBind10initializeEv","_ma_default_vfs_init","__ZN4rive20DataConverterFormula8addTokenEPNS_12FormulaTokenE","_ma_notch_node_init","_rive_png_chunk_unknown_handling","__ZN4rive13ListenerGroup6enableEi","__ZN4rive20LayoutComponentStyle20markLayoutStyleDirtyEv","__ZNK4rive13RectangleBase5cloneEv","__ZN4rive12isWhiteSpaceEj","__ZN4rive20BlendAnimationDirectD1Ev","_rive_png_free_default","_ma_sound_group_init","_rive_png_read_filter_row_paeth4_neon","__ZN4rive4TextD1Ev","_rive_png_set_read_user_transform_fn","__ZN4rive29ViewModelInstanceValueRuntime12clearChangesEv","__ZNK4rive8NodeBase5cloneEv","_ma_get_enabled_backends","__ZN4rive14NestedArtboard19internalDataContextENS_3rcpINS_11DataContextEEE","__ZN4rive10NestedBool11nestedValueEb","__ZN4rive14RiveRenderPath10addRawPathERKNS_7RawPathE","_png_write_mDCV_fixed","__ZNK4rive8FillBase5cloneEv","__ZN4rive17TextModifierRange15strengthChangedEv","_luaL_prepbuffsize","_rive_YGNodeSetPrintFunc","__ZN4rive8Joystick12widthChangedEv","_deflateSetHeader","__ZN4rive8RootBone8xChangedEv","__ZN4rive16ScriptedRenderer4saveEP9lua_State","__ZN4rive30DataConverterStringRemoveZeros11removeZerosENSt3__112basic_stringIcNS1_11char_traitsIcEENS1_9allocatorIcEEEE","_rive_png_get_hIST","__ZNK4rive20StateMachineListener14performChangesEPNS_20StateMachineInstanceENS_5Vec2DES3_i","__ZN4rive16ScriptedProperty14clearListenersEv","__ZN4rive18DataConverterGroupD1Ev","__ZN4rive3gpu13ImageMeshDraw19pushToRenderContextEPNS0_13RenderContext12LogicalFlushEi","_ma_audio_buffer_at_end","_ma_audio_buffer_seek_to_pcm_frame","__ZN4rive21DataConverterToString15decimalsChangedEv","_ma_dr_flac_open_file_with_metadata","__ZN4rive18ScriptInputBooleanD2Ev","_rawTextSetMaxHeight","_animationInstanceAdvanceAndApply","_appendCommands","_ma_data_converter_init_preallocated","__ZN4rive3gpu13RenderContextC1ENSt3__110unique_ptrINS0_17RenderContextImplENS2_14default_deleteIS4_EEEE","__ZN4rive8Artboard11dataContextENS_3rcpINS_11DataContextEEE","_rive_YGNodeStyleGetMinHeight","__ZN4rive20DataBindPathImporterC1EPNS_12DataBindPathE","__ZN4rive14ParametricPath13measureLayoutEfNS_17LayoutMeasureModeEfS1_","_artboardAnimationAt","_WebPDemuxGetI","_ma_dr_wav_read_pcm_frames_s16be","_ma_panner_init","_riveArtboardGetHeight","_lua_settable","_rive_hb_segment_properties_hash","__ZNK4rive20StateMachineInstance4nameEv","__ZN15WrappedArtboard13monitorEventsEPN4rive20StateMachineInstanceE","_riveArtboardSetWidth","_artboardUnbind","__ZN4rive20ScriptedPropertyEnumC2EP9lua_StateNS_3rcpINS_21ViewModelInstanceEnumEEE","__ZN4rive3gpu13ImageRectDraw19pushToRenderContextEPNS0_13RenderContext12LogicalFlushEi","__ZN4rive8TrimPath16modeValueChangedEv","_decodeRenderImage","__ZN4rive3gpu12PaintAuxData3setERKNS_5Mat2DENS0_9PaintTypeENS0_16SimplePaintValueEPKNS0_8GradientEPKNS0_7TextureEPKNS0_21ClipRectInverseMatrixEPKNS0_12RenderTargetERKNS0_16PlatformFeaturesE","_VP8InitScanline","__ZN4rive7NSlicer5imageEv","_luaL_checkbuffer","_lua_resetthread","_hydro_pad","__ZN4rive9TextStyle8setAssetENS_3rcpINS_9FileAssetEEE","__ZN4rive12TextValueRun14styleIdChangedEv","_riveFileArtboardByIndex","_rive_png_set_eXIf_1","_ma_biquad_get_heap_size","_ma_dr_wav_write_pcm_frames","_rive_jpeg_idct_3x6","__ZN4rive11GroupEffect15addPathProviderEPNS_12PathProviderE","__ZN4rive25ViewModelInstanceImporterC1EPNS_17ViewModelInstanceE","__ZN4rive6Stroke11joinChangedEv","__ZN4rive5Image16updateImageScaleEv","__ZN4rive15LayoutComponent17propagateCollapseEb","__ZN4rive16ScrollConstraint7offsetXEf","__ZN4rive18HitTestCommandPath7addPathEPNS_11CommandPathERKNS_5Mat2DE","_rive_YGNodeStyleGetOverflow","__ZThn432_N4rive10PointsPath13markSkinDirtyEv","__ZThn136_N4rive28ScriptInputViewModelPropertyD1Ev","__ZNK4rive24BindablePropertyListBase5cloneEv","_stateMachineSetVMIRuntime","_ma_dr_wav_open_and_read_pcm_frames_f32","__ZN4rive29ArtboardComponentListOverride29instanceWidthScaleTypeChangedEv","_ma_duplex_rb_init","__ZN4rive7RawPath6rewindEv","_ma_gainer_set_master_volume","_ma_waveform_init","_rive_hb_ot_metrics_get_position_with_fallback","__ZN4rive3gpu17IntersectionBoard14resizeAndResetEjj","__ZN4rive5Shape8collapseEb","_rive_YGNodeStyleSetFlexBasisPercent","_rive_png_set_longjmp_fn","_lua_remove","__ZN4rive15TextInputCursor7hitTestEPNS_7HitInfoERKNS_5Mat2DE","__ZN4rive12RawTextInput4undoEv","_rive_png_safe_error","__ZN4rive18TransformComponent6updateENS_13ComponentDirtE","__ZNK4rive16ScrollConstraint5cloneEv","__ZN4rive11AudioReaderC2ENS_3rcpINS_11AudioSourceEEEj","_ma_sound_get_cone","__ZN4rive16ScriptedDrawable12onAddedDirtyEPNS_11CoreContextE","__ZN4rive12GradientStop15positionChangedEv","_ma_dr_flac_open","__ZThn272_N4rive24ListFollowPathConstraint13constrainListEPNS_17ConstrainableListE","__ZN4rive16ScrollConstraint17setScrollPercentXEf","_ma_bpf_init_preallocated","_artboardSetVMIRuntime","__ZN4rive14ScriptedLayout10scriptInitEP9lua_State","_ma_waveform_seek_to_pcm_frame","__ZN4rive11ScriptAsset22initScriptedObjectWithEPNS_14ScriptedObjectE","__ZN4rive16ArtboardImporterC2EPNS_8ArtboardE","__ZN4rive9TextInput4drawEPNS_8RendererE","_ma_noise_set_amplitude","__ZN4rive20StateMachineInstanceD1Ev","_hydro_sign_keygen","_rawTextClear","_SBScriptLocatorGetAgent","__ZN4rive20LayoutComponentStyle18paddingLeftChangedEv","_shapeText","__ZN4rive8DataBind9bindsOnceEv","_rive_png_set_compression_strategy","_rive_hb_ot_metrics_get_variation","_viewModelInstanceListSize","__ZN4rive15RiveRenderPaintC2Ev","__ZN4rive21ArtboardComponentList16scrollConstraintEv","__Z18luaopen_rive_paintP9lua_State","_rive_YGNodeSetHasNewLayout","__ZN4rive11AudioEngineD2Ev","__ZN4rive12TextValueRun12hitTestPointERKNS_5Vec2DEbb","_rive_png_get_cHRM_fixed","_luaL_optinteger","_rive_YGConfigGetDefault","__ZN4rive22TextFollowPathModifier10endChangedEv","_WebPInitAlphaProcessingNEON","__ZN4rive24DataBindContextValueEnumC1EPNS_8DataBindE","_getEventCustomProperty","__ZN4rive23ListenerViewModelChangeD2Ev","__ZN4rive21ArtboardComponentList16artboardPositionEPNS_16ArtboardInstanceE","_ma_log_postv","_ma_spatializer_set_master_volume","_png_set_rgb_coefficients","_rive_hb_variation_from_string","__ZN4rive18LayoutNodeProvider19addLayoutConstraintEPNS_16LayoutConstraintE","__ZN4rive20StateMachineListener22decodeViewModelPathIdsENS_4SpanIKhEE","_ma_engine_set_volume","_ma_bpf2_init","_rive_png_get_image_height","__ZN4rive14NestedArtboard8willDrawEv","_rawTextInputBounds","__ZThn328_N4rive11NSlicedNode11axisChangedEv","_ma_calloc","_ma_engine_uninit","_VP8DspInitNEON","_rive_png_get_rows","_hydro_sign_final_verify","__ZN4rive20StateMachineListenerD1Ev","_ma_engine_config_init","_convertIntToNumber","_createDefaultVMIRuntime","__ZN4rive8GlyphItr13tryAdvanceRunEv","_rive_png_set_palette_to_rgb","_VP8LDecodeAlphaImageStream","__ZN4rive20LayoutComponentStyle17paddingTopChangedEv","_rive_hb_font_set_user_data","__ZN4rive17BackboardImporter7resolveEv","__ZN4rive20DataConverterFormula14applyOperationEffi","_rive_hb_ot_layout_collect_features","_riveArtboardHasComponentDirt","__ZThn56_N4rive20StateMachineInstanceD0Ev","_rive_png_set_unknown_chunks","__ZNK4rive14KeyFrameIdBase5cloneEv","__ZN4rive11KeyedObjectD2Ev","__ZN4rive18ContainerComponent12forEachChildENSt3__18functionIFbPNS_9ComponentEEEE","__ZN4rive18NestedStateMachine11pointerExitENS_5Vec2DEi","__ZN4rive9HitTester4moveENS_5Vec2DE","__ZN4rive18ContainerComponent8collapseEb","_ma_dr_wav_init_memory_write_sequential","__ZN15WrappedArtboardD2Ev","_ma_spatializer_get_positioning","__ZN4rive8Artboard12drawInternalEPNS_8RendererE","__ZNK4rive31FormulaTokenParenthesisOpenBase5cloneEv","_rive_hb_font_funcs_set_glyph_v_advances_func","__ZNK4rive11DataContext28getRelativeViewModelInstanceENSt3__16vectorIjNS1_9allocatorIjEEEEPNS_12DataResolverE","__ZN11rive_YGNode26setLayoutMeasuredDimensionEfi","__ZNK4rive28BindablePropertyArtboardBase5cloneEv","__ZN4rive19ThumbDraggableProxy4dragENS_5Vec2DEf","_rive_hb_font_get_nominal_glyph","__ZN4rive18DistanceConstraint15distanceChangedEv","__ZNK11rive_YGNode15resolveFlexGrowEv","__ZNK4rive18NestedArtboardBase5cloneEv","__ZN4rive16ScrollConstraint12onAddedDirtyEPNS_11CoreContextE","_makeGlyphPath","__ZN4rive19ScriptedDataContext13pushViewModelEv","__ZNK4rive24ViewModelInstanceRuntime16propertyArtboardERKNSt3__112basic_stringIcNS1_11char_traitsIcEENS1_9allocatorIcEEEE","__ZNK4rive14NestedArtboard4fileEv","__ZNK4rive11NSlicedNode11localBoundsEv","__ZN4rive20StateMachineInstance9dragStartENS_5Vec2DEfbi","__ZN4rive19ConditionComparison14compareNumbersEff","_setVMIBooleanRuntimeValue","__ZN4rive12CoreBoolType11deserializeERNS_12BinaryReaderE","__ZN4rive14GrTriangulator4Poly7addEdgeEPNS0_4EdgeENS0_4SideEPS0_","__ZThn152_N4rive8TrimPath12updateEffectEPNS_12PathProviderEPKNS_14ShapePaintPathEPKNS_10ShapePaintE","__ZN4rive17TextModifierRange16modeValueChangedEv","_stateMachineInstanceBatchAdvanceAndRender","__ZN4rive16InterpolatorHost4fromEPNS_4CoreE","__ZN4rive4Text11controlSizeENS_5Vec2DENS_15LayoutScaleTypeES2_NS_15LayoutDirectionE","_ma_decoder_init_file_w","_ma_sound_set_pinned_listener_index","__ZN4rive9HitTester5closeEv","_ma_pcm_rb_reset","__ZN4rive14NSlicerHelpers32deformLocalRenderPathWithNSlicerERKNS_11NSlicedNodeERNS_7RawPathERKNS_5Mat2DES8_","_setVMIEnumRuntimeValue","_rive_png_write_data","__ZN13rive_YGConfigC1EPFiPS_P11rive_YGNode15rive_YGLogLevelPKcPcE","_flush","__ZN18FlutterIndexBuffer6updateEv","__ZN4rive3gpu7TextureC2Ejj","__ZN4rive4Mesh17buildDependenciesEv","__ZN4rive13DataConverter7advanceEf","__ZNK4rive14GrTriangulator24countMaxTriangleVerticesEPNS0_4PolyE","_ma_audio_buffer_uninit","__ZN11rive_YGNode16setLayoutPaddingEfi","_ma_sound_set_max_distance","__ZN4rive17ViewModelInstance7setRootENS_3rcpIS0_EE","__ZNK4rive9BlobAsset13fileExtensionEv","_rive_png_fixed_error","__ZN4rive16BlendAnimation1D12onAddedCleanEPNS_11CoreContextE","_luaL_findtable","__ZN4rive5Shape12addToRawPathERNS_7RawPathEPKNS_5Mat2DE","__ZNK4rive14ScriptedObject15clonePropertiesEPNS_23CustomPropertyContainerEPNS_17DataBindContainerE","__ZN4rive23ViewModelInstanceString20propertyValueChangedEv","__ZThn448_N4rive15LayoutComponent27overridesKeyedInterpolationEi","__ZN4rive9HitTester4quadENS_5Vec2DES1_","__ZN4rive15LayoutComponent14displayChangedEv","__ZN4rive12BinaryReaderC1ENS_4SpanIKhEE","__ZThn400_N4rive15LayoutComponentD0Ev","_ma_spatializer_get_directional_attenuation_factor","_rive_png_get_interlace_type","__ZN4rive15LayoutComponent22fractionalWidthChangedEv","__ZN4rive19ScriptInputArtboard22syncReferencedArtboardEv","__ZNK4rive7RawText5emptyEv","__ZNK4rive26ViewModelPropertyColorBase5cloneEv","_rive_png_get_tIME","__ZN4rive24DataBindListItemConsumer4fromEPNS_4CoreE","_ma_device_uninit","_ma_pulsewave_set_frequency","__ZN4rive7Polygon12buildPolygonEv","_ma_dr_flac_seek_to_pcm_frame","__ZN4rive11AudioSource8channelsEv","_ma_loshelf2_get_heap_size","_rive_png_save_uint_16","_lua_getfield","_ma_paged_audio_buffer_data_append_page","__ZN4rive20FollowPathConstraint15distanceChangedEv","__ZNK4rive23LinearAnimationInstance9startTimeEv","__ZN4rive17ViewModelInstanceD2Ev","__ZNK4rive4File36internalBindableArtboardFromArtboardEPNS_8ArtboardE","__Z10luaB_inextP9lua_State","_rive_jpeg_idct_7x14","__ZN4rive8DataBind16updateDependentsEv","__ZNK11rive_YGNode17getTrailingMarginE20rive_YGFlexDirectionf","__ZNK4rive22ScriptInputBooleanBase5cloneEv","_setViewModelInstanceAdvanced","_lua_getupvalue","_ma_spatializer_get_output_channels","_yogaStyleGetBorder","__ZN4rive20NestedArtboardLayout6updateENS_13ComponentDirtE","__ZN4rive5Vec2D12transformDirERKS0_RKNS_5Mat2DE","_setVMIArtboardRuntimeValue","__ZN4rive8RootBone12onAddedCleanEPNS_11CoreContextE","__ZN4rive20LayoutComponentStyle17paddingRightUnitsEv","__ZN4rive14ShapePaintPath16addPathBackwardsERKNS_7RawPathEPKNS_5Mat2DE","__ZThn408_N4rive14NestedArtboard11hitTestHostERKNS_5Vec2DEbPNS_16ArtboardInstanceE","__ZN4rive10colorGreenEj","__ZNK4rive7RawPath13preciseBoundsEv","_viewModelRuntimeProperties","__ZNK4rive18NestedArtboardLeaf5cloneEv","_yogaStyleGetOverflow","__ZN4rive24BlendStateDirectInstance7advanceEfPNS_20StateMachineInstanceE","_ma_dr_wav_open_memory_and_read_pcm_frames_f32","__ZN4rive17ConstrainableList17addListConstraintEPNS_14ListConstraintE","__ZN4rive9ViewModel11addInstanceEPNS_17ViewModelInstanceE","__ZN4rive18LayerStateImporterC2EPNS_10LayerStateE","__ZN4rive13CoreBytesType14deserializeRevERNS_12BinaryReaderE","_ma_dr_wav_read_pcm_frames_s32le","__ZN4rive29DataConverterSystemNormalizer7convertEPNS_9DataValueEPNS_8DataBindE","_stateMachineInstanceAdvanceAndApply","__ZN4rive8ArtboardC1Ev","_ma_dr_wav_u8_to_s32","__ZN4rive20LayoutComponentStyle26layoutAlignmentTypeChangedEv","__Z27ma_vfs_open_and_read_file_wPvPKwPS_PmPK23ma_allocation_callbacks","__ZN4rive21ArtboardComponentList18listItemTransformsERNSt3__16vectorIPNS_5Mat2DENS1_9allocatorIS4_EEEE","_vmiRuntimeGetStringProperty","__ZN4rive24DataConverterRangeMapper15minInputChangedEv","__ZNK4rive26TextFollowPathModifierBase5cloneEv","_ma_audio_buffer_alloc_and_init","_rawTextInsertCodePoint","__ZNK4rive14GrTriangulator16polysToTrianglesEPNS0_4PolyENS_8FillRuleEtbbNS_3gpu12WindingFacesEPNS4_21WriteOnlyMappedMemoryINS4_14TriangleVertexEEE","_rive_png_set_text_compression_level","_rive_png_set_expand_16","__ZN4rive9TextInput13measureLayoutEfNS_17LayoutMeasureModeEfS1_","__ZN4rive22TextFollowPathModifier13orientChangedEv","__ZN4rive11RenderImageD2Ev","__ZN4rive4FileD2Ev","_rive_hb_unicode_funcs_get_user_data","__ZN4rive16BinaryDataReader11readFloat64Ev","__ZN4rive3gpu23RenderContextHelperImpl17resizePaintBufferEmNS0_22StorageBufferStructureE","__ZNK4rive20StateMachineInstance5inputEm","_hb_buffer_get_not_found_variation_selector_glyph","_rive_hb_ot_layout_script_select_language2","_ma_log_level_to_string","_ma_gainer_init","__ZN4rive8Joystick12onAddedDirtyEPNS_11CoreContextE","__ZN4rive25ViewModelInstanceImporter7resolveEv","__ZN4rive28TransitionViewModelCondition9operationENS_21TransitionConditionOpE","__ZN4rive16ArtboardInstanceD2Ev","_textValueRunSetText","_ma_spatializer_set_positioning","_ma_spatializer_set_doppler_factor","_ma_dr_wav_alaw_to_f32","__ZN4rive4Text16addModifierGroupEPNS_17TextModifierGroupE","__ZN4rive25DataConverterInterpolator5resetEv","_ma_sound_group_uninit","__ZN4rive17ScriptedViewModelD2Ev","_rive_hb_ot_metrics_get_y_variation","__ZN4rive14InBandByteCodeC1EPNS_11ScriptAssetERNS_11SimpleArrayIhEE","__ZN11rive_YGNode36setLayoutComputedFlexBasisGenerationEj","__ZNK4rive24NestedRemapAnimationBase5cloneEv","__ZN4rive15NestedAnimation8validateEPNS_11CoreContextE","__ZNK4rive17TextStyleAxisBase5cloneEv","__ZNK4rive12RawTextInput21separateSelectionTextEv","_rive_jpeg_std_huff_table","_ma_notch2_uninit","__ZN4rive16ScriptedDrawable13hitComponentsEPNS_20StateMachineInstanceE","__ZN4rive14ScriptedObject7triggerENSt3__112basic_stringIcNS1_11char_traitsIcEENS1_9allocatorIcEEEE","_animationInstanceName","_ma_resampler_set_rate_ratio","__ZNK4rive3gpu8Gradient12getModulatedEf","_yogaStyleGetDisplay","_ma_paged_audio_buffer_data_get_tail","_VP8LPredictor6_C","__ZThn376_N4rive13TextInputText18localClockwisePathEv","__ZNK4rive20StateMachineInstance18reportedEventCountEv","_ma_data_converter_get_input_latency","__Z19renderPathToRawPathPN4rive7FactoryEPNS_10RenderPathE","__ZN4rive15NSlicerTileMode12onAddedDirtyEPNS_11CoreContextE","__ZN4rive20BlendState1DInstanceD0Ev","__Z41ma_calculate_frame_count_after_resamplingjjy","_rawTextBounds","__ZN4rive14GrTriangulator10VertexList6removeEPNS0_6VertexE","__ZN4rive15LayoutComponent9drawProxyEPNS_8RendererE","__ZN4rive17ScriptedAnimationC2EP9lua_StateNSt3__110unique_ptrINS_23LinearAnimationInstanceENS3_14default_deleteIS5_EEEE","_ma_device_is_started","__ZN4rive13ScriptedPaintC2EPNS_7FactoryE","__ZN4rive3gpu13RenderContext12LogicalFlush6rewindEv","_rive_png_set_flush","__ZN4rive17RiveRenderFactory18makeRadialGradientEfffPKjPKfm","__ZN4rive15LayoutComponent18interruptAnimationEv","__ZN4rive17TextModifierRange15modifyToChangedEv","__ZN4rive12StateMachine8addLayerENSt3__110unique_ptrINS_17StateMachineLayerENS1_14default_deleteIS3_EEEE","__ZN4rive21ArtboardComponentList18updateLayoutBoundsEb","__ZN4rive7RawPath5closeEv","__ZNK4rive15ContourPointItrdeEv","_rive_png_write_iTXt","__ZN4rive18ContourMeasureIter4nextEv","__ZN4rive10LayerStateD2Ev","__ZThn168_N4rive18ScriptedPathEffect15addScriptedDirtENS_13ComponentDirtEb","_rive_YGNodeSetNodeType","__ZN4rive8Drawable16addClippingShapeEPNS_13ClippingShapeE","_ma_sound_seek_to_pcm_frame","_rive_hb_blob_create_from_file","_rive_hb_font_get_glyph_kerning_for_direction","__ZN4rive14ShapePaintPathC1Eb","__ZN4rive21TranslationConstraint9constrainEPNS_18TransformComponentE","_ma_sound_get_data_source","_ma_noise_get_heap_size","_rive_hb_set_union","__Z23ma_flac_read_pcm_framesP7ma_flacPvyPy","__ZN4rive20StateMachineInstance9pointerUpENS_5Vec2DEi","__ZN13rive_facebook4yoga5Event7publishERK11rive_YGNodeNS1_4TypeERKNS1_4DataE","__ZThn424_NK4rive11NSlicedNode21deformLocalRenderPathERNS_7RawPathERKNS_5Mat2DES5_","__ZNK13rive_YGConfig19getPointScaleFactorEv","__ZN4rive11ScriptAsset6decodeERNS_11SimpleArrayIhEEPNS_7FactoryE","_rive_png_get_uint_32","_lua_newstate","__ZN4rive12RiveRenderer12clipRectImplENS_4AABBEPKNS_14RiveRenderPathE","_zcfree","__ZN4rive10AudioSound4seekEy","_ma_lpf_process_pcm_frames","_WebPDemuxReleaseIterator","__ZN4rive14LinearGradient11endYChangedEv","_unmapRenderBuffer","__ZN4rive24TransitionInputCondition6importERNS_11ImportStackE","__ZN4rive4Text13measureLayoutEfNS_17LayoutMeasureModeEfS1_","__ZN4rive17ScriptedViewModelC1EP9lua_StateNS_3rcpINS_9ViewModelEEENS3_INS_17ViewModelInstanceEEE","__ZN4rive10MeshVertex17markGeometryDirtyEv","__ZN4rive20LayoutComponentStyle18aspectRatioChangedEv","_rive_jpeg_std_error","__ZN18FlutterIndexBufferD0Ev","_rive_hb_face_destroy","__ZN4rive11AudioEngine14SoundCompletedEPvP8ma_sound","__ZN4rive24BindablePropertyImporterC2EPNS_16BindablePropertyE","__ZN4rive13KeyedPropertyD1Ev","__ZN4rive3gpu23RenderContextHelperImpl23mapTessVertexSpanBufferEm","_rive_png_set_benign_errors","_deflatePrime","__ZN17FlutterRenderPath6updateEv","_rive_png_get_signature","_ma_engine_node_get_heap_size","_rive_png_set_compression_mem_level","_rive_hb_unicode_funcs_make_immutable","__ZN4rive20LayoutComponentStyle7displayEv","__ZN4rive15LayoutComponent11gapVerticalEv","_setArtboardIsAncestorCallback","__ZN4rive14NestedArtboardC1Ev","__ZN4rive26DataBindContextTargetValueD0Ev","__ZN4rive27VertexPropertyListenerPointD1Ev","__ZN4rive4Node13computedRootXEv","_hydro_secretbox_encrypt","_rive_hb_ot_layout_get_glyph_class","__ZN4rive26DataBindContextValueStringC2EPNS_8DataBindE","__ZN4rive7RawPath5resetEv","__ZN4rive14GrTriangulator10VertexList6insertEPNS0_6VertexES3_S3_","__ZN4rive7Feather8validateEPNS_11CoreContextE","_ma_semaphore_init","_ma_sound_get_time_in_milliseconds","_rive_png_do_write_transformations","__Z23ma_vfs_or_default_writePvS_PKvmPm","__ZThn136_N4rive28ScriptInputViewModelProperty21validateForScriptInitEv","__ZNK4rive11DataContext20getViewModelInstanceENSt3__16vectorIjNS1_9allocatorIjEEEE","__ZN4rive12RawTextInput6unflagENS0_5FlagsE","__ZThn400_N4rive14NestedArtboard5resetEv","_rive_hb_font_funcs_set_variation_glyph_func","_viewModelInstanceReferenceViewModel","__ZN4rive13ListenerGroup7disableEi","__ZN4rive23ViewModelInstanceString10applyValueEPNS_15DataValueStringE","_ma_pcm_rb_get_sample_rate","_ma_data_source_get_next","__ZThn408_N4rive9TextInput14markPaintDirtyEv","_ma_device_get_state","__ZN4rive29ViewModelInstanceValueRuntime7addDirtENS_13ComponentDirtEb","__ZN4rive13TextInputText7hitTestEPNS_7HitInfoERKNS_5Mat2DE","_fontDescent","__ZN4rive3gpu28SwizzleRiveColorToRGBAPremulEj","__ZN4rive22ViewModelInstanceValue6importERNS_11ImportStackE","_lua_setlocal","_ma_lpf_config_init","__ZN4rive17ViewModelInstanceD0Ev","__ZNK4rive14GrTriangulator13mergeVerticesEPNS0_6VertexES2_PNS0_10VertexListERKNS0_10ComparatorE","__ZN4rive13CoreBytesType11deserializeERNS_12BinaryReaderE","_rive_jpeg_core_output_dimensions","__ZNK4rive25ArtboardComponentListBase5cloneEv","__ZNK4rive11NSlicedNode15scaleForNSlicerEv","_rive_png_set_write_user_transform_fn","_ma_sound_group_stop","_rive_png_set_rgb_to_gray_fixed","__ZN4rive24ForegroundLayoutDrawable6updateENS_13ComponentDirtE","__ZN4rive16ScrollConstraint18visibleHeightRatioEv","__ZN4rive9ViewModel8propertyERKNSt3__112basic_stringIcNS1_11char_traitsIcEENS1_9allocatorIcEEEE","__ZN4rive10AudioSoundD2Ev","_ma_lpf2_clear_cache","__ZN4rive4FileC2EPNS_7FactoryENS_3rcpINS_15FileAssetLoaderEEE","_luaL_buffinit","_rive_png_read_start_row","__ZN4rive17DataBindContainer24bindDataBindsFromContextEPNS_11DataContextE","_rive_hb_font_funcs_make_immutable","__ZThn456_N4rive15LayoutComponent18updateLayoutBoundsEb","__ZNK4rive26DataConverterOperationBase5cloneEv","_deleteBindableArtboard","_rive_hb_font_funcs_destroy","_ma_data_converter_get_output_latency","_rive_png_set_gAMA","_yogaStyleSetAlignContent","__ZNK4rive11OrderedLine18lastCodePointIndexERKNS_11GlyphLookupE","__ZN4rive15RiveRenderPaint5colorEj","__ZN4rive12RenderShaderD1Ev","__ZN4rive20TextValueRunListener9markDirtyEv","_ma_hishelf_node_reinit","__ZN4rive17ScriptedViewModel9pushValueEPKci","_lua_pushunsigned","__ZN4rive14VertexListener30createOutPointPropertyListenerEv","_deleteViewModelInstance","_luaL_pushresultsize","_hydro_kx_kk_2","_rive_png_write_end","__ZN4rive10LayerState12onAddedCleanEPNS_11CoreContextE","_rive_png_app_error","__ZN4rive6Tendon12onAddedDirtyEPNS_11CoreContextE","__ZN4rive12RawTextInput4fontENS_3rcpINS_4FontEEE","__ZN4rive4Node8yChangedEv","__ZN11rive_YGNode16resolveDimensionEv","__ZN4rive12StateMachineD2Ev","__ZN4rive20StateMachineInstance14tryChangeStateEv","_rive_jpeg_get_large","_ma_pcm_rb_get_subbuffer_offset","__ZNK4rive9FileAsset10uniqueNameEv","_rive_png_get_cHRM_XYZ","_VP8LTransformColorInverse_C","__ZNK4rive9FileAsset10cdnUuidStrEv","__Z24luaopen_rive_data_valuesP9lua_State","__ZThn424_N4rive14NestedArtboard14updateArtboardEPNS_25ViewModelInstanceArtboardE","__ZN4rive22DataConverterStringPad14padTypeChangedEv","_png_get_cICP","_ma_paged_audio_buffer_get_length_in_pcm_frames","__ZNK4rive17ShapePaintMutator9isVisibleEv","_rive_YGNodeStyleGetFlex","_VP8LPredictor12_C","__ZN4rive5Shape11hitTestHiFiERKNS_5Vec2DEf","__ZNK4rive11ElasticEase22computeActualAmplitudeEf","_deleteTrimPathEffect","__ZN4rive16ArtboardImporter15addStateMachineEPNS_12StateMachineE","__ZN4rive16ScrollConstraintD2Ev","_rive_YGNodeLayoutGetPadding","__ZN4rive22ScriptedPropertyNumberC2EP9lua_StateNS_3rcpINS_23ViewModelInstanceNumberEEE","__ZN4rive3gpu23RenderContextHelperImpl18unmapContourBufferEm","_deleteRenderPath","_ma_data_converter_init","_hydro_kx_kk_3","_ma_device_get_context","__ZN4rive9HitTester5resetEv","__ZN4rive21CubicAsymmetricVertex15rotationChangedEv","__ZN4rive22ViewportDraggableProxy4dragENS_5Vec2DEf","_rive_png_write_sBIT","__ZN4rive20LayoutComponentStyle22widthUnitsValueChangedEv","__ZN4rive21ArtboardComponentList20updateWorldTransformEv","__ZN4rive5Shape11hitTestAABBERKNS_5Vec2DE","__ZN4rive30DataBindContextValueAssetImageC1EPNS_8DataBindE","__ZNK13rive_YGConfig3logEPS_P11rive_YGNode15rive_YGLogLevelPvPKcPc","_rive_png_read_transform_info","_unrefAudioSource","__ZNK5skgpu17RectanizerSkyline13rectangleFitsEiiiPi","_rive_png_set_chunk_malloc_max","__ZN4rive27DataBindContextValueTrigger5applyEPNS_4CoreEjb","__Z12ma_vec3f_neg8ma_vec3f","__ZNK4rive10AudioSound9completedEv","_riveDataBindDirt","_luaopen_string","_lua_clonefunction","_setSoundVolume","_rawTextErase","_rive_png_set_sRGB_gAMA_and_cHRM","__ZN4rive22DataConverterOperation19reverseConvertValueEPNS_9DataValueEf","_ma_dr_wav_uninit","__ZN4rive17initializeLuaDataEP9lua_StateRNSt3__16vectorIPNS_9ViewModelENS2_9allocatorIS5_EEEE","__ZN4rive15DataBindContext11resolvePathEv","__ZN4rive8Artboard15addStateMachineEPNS_12StateMachineE","__ZN4rive8colorRedEj","_ma_sound_group_set_start_time_in_milliseconds","_ma_dr_wav_open_memory_and_read_pcm_frames_s32","__ZN4rive25ScriptedPropertyViewModelC2EP9lua_StateNS_3rcpINS_9ViewModelEEENS3_INS_26ViewModelInstanceViewModelEEE","_lua_getlocal","__Z18ma_encoder_preinitPK17ma_encoder_configP10ma_encoder","__ZNK4rive4File30createDefaultViewModelInstanceEPNS_9ViewModelE","__ZNK4rive15StateTransition17exitTimeAnimationEPKNS_10LayerStateE","__ZN4rive12RiveRenderer8drawPathEPNS_10RenderPathEPNS_11RenderPaintE","__ZN4rive20BlendAnimationDirectD0Ev","__ZN11rive_YGNode22computeEdgeValueForRowERKN13rive_facebook4yoga6detail6ValuesILm9EEE11rive_YGEdgeS7_NS2_12CompactValueE","__ZN4rive15ScriptedContextC2EPNS_14ScriptedObjectE","__ZN4rive9Rectangle21cornerRadiusBLChangedEv","__ZNK4rive14AnimationState12makeInstanceEPNS_16ArtboardInstanceE","__ZNK4rive6Stroke9pathFlagsEv","_rive_png_read_IDAT_data","__ZN4rive25DataConverterInterpolatorD2Ev","__ZN4rive15StateTransitionD1Ev","_ma_biquad_config_init","__ZThn392_N4rive14NestedArtboard16advanceComponentEfNS_12AdvanceFlagsE","__ZN4rive14GrTriangulator8EdgeList6removeEPNS0_4EdgeE","_riveArtboardStateMachineAt","_rive_png_set_mem_fn","__ZNK4rive10WeightBase5cloneEv","_setArtboardEventCallback","__ZN4rive11RenderImageC2ERKNS_5Mat2DE","__ZN4rive22AnimationStateInstance16clearSpilledTimeEv","__ZN4rive32ViewModelInstanceArtboardRuntime17viewModelInstanceENS_3rcpINS_17ViewModelInstanceEEE","_getVMIEnumRuntimeValue","_rive_hb_ot_var_named_instance_get_subfamily_name_id","__ZN4rive12RiveRendererD1Ev","_luaL_checktype","__ZN4rive14CoreDoubleType11deserializeERNS_12BinaryReaderE","__ZNK4rive17TextModifierGroup14computeOpacityEff","__ZN4rive11ScriptInputD1Ev","__ZN4rive15LayoutComponent8animatesEv","__ZN4rive21AnimationResetFactory10fromStatesEPNS_13StateInstanceES2_PNS_16ArtboardInstanceE","__ZN4rive21ArtboardComponentList19markLayoutNodeDirtyEb","_rive_jpeg_finish_decompress","__ZN4rive12TargetEffect11parentPaintEv","__tr_align","_componentGetScaleX","__ZN4rive15LayoutComponentD0Ev","_ma_bpf_get_heap_size","__ZN4rive7RawText16paragraphSpacingEf","_ma_node_detach_all_output_buses","_ma_spatializer_init_preallocated","__ZN4rive3gpu17ImageDrawUniformsC1ERKNS_5Mat2DEfPKNS0_21ClipRectInverseMatrixEjNS_9BlendModeEj","_ma_dr_mp3_get_mp3_frame_count","_inflateUndermine","__ZN4rive20StateMachineInstanceD0Ev","__ZN4rive27DataBindContextValueBooleanC2EPNS_8DataBindE","__ZN4rive20StateMachineInstance8keyInputENS_3KeyENS_12KeyModifiersEbb","_ma_sound_is_spatialization_enabled","_WebPRescaleNeededLines","_rive_hb_buffer_get_flags","_ma_dr_wav_init_file_write_w","_rive_png_set_write_fn","__ZN4rive10PathDasher14invalidateDashEv","__ZN4rive15LayoutComponent17interpolationTimeEv","__ZN4rive14BlendAnimation6importERNS_11ImportStackE","__ZN4rive20NestedArtboardLayout17updateConstraintsEv","_ma_spatializer_listener_init_preallocated","__ZNK4rive25ViewModelPropertyListBase5cloneEv","_ma_dr_flac_open_and_read_pcm_frames_s16","__Z23rive_YGFloatOptionalMax20rive_YGFloatOptionalS_","__ZN4rive15LayoutComponent9localPathEv","__ZN4rive18TransformComponent8collapseEb","__ZN4rive23ScriptedPropertyBooleanC1EP9lua_StateNS_3rcpINS_24ViewModelInstanceBooleanEEE","_yogaNodeRemoveChild","_ma_sound_group_set_fade_in_pcm_frames","_rive_jpeg_has_multiple_scans","__ZN13rive_YGConfig17setUseWebDefaultsEb","__ZN4rive14KeyFrameString18applyInterpolationEPNS_4CoreEifPKNS_8KeyFrameEf","__ZNK4rive4File23createViewModelInstanceEmm","__ZThn8_N4rive23LinearAnimationInstance11reportEventEPNS_5EventEf","__ZN4rive20StateMachineInstance16clearDataContextEv","_vmiListRuntimeRemoveInstance","__ZN4rive5AxisX12onAddedDirtyEPNS_11CoreContextE","__ZNK4rive8Artboard7resolveEj","_ma_dr_mp3_read_pcm_frames_s16","__ZN4rive27VertexPropertyListenerMultiC1EPNS_4CoreEPNS_14VertexListenerEPNS_22ViewModelInstanceValueENSt3__16vectorItNS7_9allocatorItEEEEf","__ZN15WrappedArtboard13monitorEventsEPN4rive23LinearAnimationInstanceE","__ZN4rive20TextValueRunListener16createPropertiesEv","_disableFallbackFonts","_rive_hb_ot_layout_collect_features_map","_rive_png_get_pixels_per_meter","_rive_hb_draw_funcs_get_empty","__ZN4rive16ScriptedRenderer9transformEP9lua_StateRKNS_5Mat2DE","_rive_jinit_merged_upsampler","__ZN4rive4Text17alignValueChangedEv","__ZN4rive8Artboard6rebindEv","_luaopen_base","_deleteVMIValueRuntime","_rive_YGNodeStyleSetFlexShrink","__ZN4rive9TextStyleC2Ev","_rive_hb_font_funcs_set_font_v_extents_func","__ZN4rive20FollowPathConstraint13orientChangedEv","__ZThn192_N4rive11GroupEffect11parentPaintEv","_ma_lpf_reinit","_rive_hb_shape_list_shapers","__ZN4rive21KeyedPropertyImporterC1EPNS_15LinearAnimationEPNS_13KeyedPropertyE","__ZNK4rive19StateTransitionBase5cloneEv","_rive_png_image_write_to_memory","_rive_png_set_IHDR","_ma_pulsewave_config_init","__ZThn184_N4rive14LinearGradient20renderOpacityChangedEv","_rive_YGNodeLayoutGetWidth","__ZN4rive20LayoutComponentStyle13flexDirectionEv","__ZNK4rive24ViewModelInstanceRuntime14propertyNumberERKNSt3__112basic_stringIcNS1_11char_traitsIcEENS1_9allocatorIcEEEE","__ZN4rive4Skin17buildDependenciesEv","_rive_hb_unicode_general_category","_ma_audio_buffer_config_init","__ZN4rive10StyledText5clearEv","__ZN4rive8DataBindD1Ev","_rive_png_get_eXIf","__ZN4rive20StateMachineInstance11pointerDownENS_5Vec2DEi","_rive_hb_font_set_ptem","__ZN4rive12rive_lua_popEP9lua_Statei","_rive_YGNodeStyleSetWidthPercent","_ma_dr_mp3_uninit","_rive_png_write_PLTE","_VP8LAddGreenToBlueAndRed_C","_ma_log_post","_rive_png_set_add_alpha","__ZN4rive12BinaryWriter12writeVarUintEj","_ma_spatializer_get_direction","_ma_splitter_node_config_init","_rive_YGNodeLayoutGetLeft","__ZNK4rive25DataConverterNumberToList4fileEv","_ma_data_converter_get_heap_size","_rive_hb_font_create_sub_font","_ma_event_wait","__ZNK4rive22NestedStateMachineBase5cloneEv","__ZN4rive14ScriptedObject15setIntegerInputENSt3__112basic_stringIcNS1_11char_traitsIcEENS1_9allocatorIcEEEEi","__ZN4rive10AudioSound6volumeEv","_ma_pcm_rb_commit_write","__ZNK4rive5Image10imageAssetEv","__ZN4rive15LinearAnimation6importERNS_11ImportStackE","__ZN4rive4Mesh4drawEPNS_8RendererEPKNS_11RenderImageENS_12ImageSamplerENS_9BlendModeEf","__ZN4rive12BinaryReader10readUint32Ev","_rive_YGNodeStyleGetFlexDirection","__ZThn408_N4rive20NestedArtboardLayout22markHostingLayoutDirtyEPNS_16ArtboardInstanceE","__ZN4rive18NestedStateMachine7advanceEfb","_WebPDecode","_rawTextInputSetFontSize","__ZN18FlutterRenderPaintD2Ev","_rive_YGConfigSetExperimentalFeatureEnabled","__ZN4rive4Path6updateENS_13ComponentDirtE","_rive_hb_set_set_user_data","__ZN4rive7RawText6renderEPNS_8RendererENS_3rcpINS_11RenderPaintEEE","_ma_engine_listener_set_world_up","__ZN4rive18NestedStateMachine19initializeAnimationEPNS_16ArtboardInstanceE","_rive_hb_blob_create_sub_blob","__ZN4rive11AudioReader14lengthInFramesEv","__ZN4rive14LinearGradient7applyToEPNS_11RenderPaintEf","_stateMachineInput","__ZNK4rive25DataConverterToStringBase5cloneEv","__ZN4rive16ScriptingContext18onModuleRegisteredEPNS_13ModuleDetailsE","_riveFileAssetFileExtension","__ZN4rive18NestedStateMachine11pointerDownENS_5Vec2DEi","__Z16ma_mp3_init_filePKcPK26ma_decoding_backend_configPK23ma_allocation_callbacksP6ma_mp3","_rive_jinit_2pass_quantizer","__ZNK4rive10PointsPath13pathTransformEv","_ma_notch_node_config_init","__ZNK4rive9ViewModel13instanceCountEv","_yogaStyleGetFlexDirection","__ZN4rive21ViewModelInstanceListD0Ev","_addPath","__ZN4rive27ScriptedTransitionCondition11addPropertyEPNS_14CustomPropertyE","_ma_copy_and_apply_volume_factor_pcm_frames","_ma_waveform_set_type","__ZN4rive13KeyedProperty11addKeyFrameENSt3__110unique_ptrINS_8KeyFrameENS1_14default_deleteIS3_EEEE","__Z19luaopen_rive_vectorP9lua_State","__ZN4rive18TransformComponent17buildDependenciesEv","__ZN4rive10ImageAssetD0Ev","__ZNK4rive14GrTriangulator10Comparator8sweep_ltERKNS_5Vec2DES4_","_rive_png_read_filter_row_sub4_neon","__ZN4rive16PropertyRecorder15recordDataBindsEPKNS_8ArtboardE","__ZN4rive22ScriptedListenerActionD0Ev","_rive_hb_buffer_set_length","__ZN4rive22ScriptedObjectImporter8addInputEPNS_14CustomPropertyE","__ZN13rive_YGConfig9addErrataE13rive_YGErrata","_ma_audio_buffer_ref_set_data","_rive_hb_draw_funcs_set_close_path_func","_rive_YGConfigSetUseLegacyStretchBehaviour","_ma_dr_wav_read_pcm_frames_be","_ma_apply_volume_factor_u8","__ZN4rive16ScriptedPropertyD1Ev","__ZN4rive16ScriptedPathDataC1EPKNS_7RawPathE","_ma_hpf1_uninit","__ZNK4rive31ViewModelPropertyEnumSystemBase5cloneEv","__ZN4rive26StateMachineLayerComponentD1Ev","__ZNK4rive22ViewModelInstanceValue4nameEv","_hydro_hash_keygen","_rive_png_destroy_write_struct","_artboardTakeLayoutNode","__ZN4rive3gpu15ShaderUniqueKeyENS0_8DrawTypeENS0_14ShaderFeaturesENS0_13InterlockModeENS0_15ShaderMiscFlagsE","__ZNK4rive4AABB8roundOutEv","_rive_png_get_compression_buffer_size","__ZNK4rive25BlendState1DViewModelBase5cloneEv","_rive_hb_set_del_range","__ZN4rive17TextModifierRange12onAddedDirtyEPNS_11CoreContextE","__ZN4rive28StateMachineListenerImporter7resolveEv","_ma_dr_wav_init","_VP8LInverseTransform","__ZN4rive19ScrollBarConstraint9constrainEPNS_18TransformComponentE","__ZN4rive16PropertyRecorder18recordStateMachineEPKNS_12StateMachineE","_rive_hb_buffer_get_glyph_infos","__ZN4rive9TextStyle12onAddedCleanEPNS_11CoreContextE","__ZN4rive15LayoutComponent23calculateLayoutInternalEff","__ZN4rive9TextInput8keyInputENS_3KeyENS_12KeyModifiersEbb","_rive_png_get_cHRM","_luaL_optunsigned","_rive_png_set_cHRM_XYZ","__ZN4rive18DataConverterGroup5resetEv","_componentGetLocalBounds","__ZN4rive14NestedArtboard21bindViewModelInstanceENS_3rcpINS_17ViewModelInstanceEEENS1_INS_11DataContextEEE","_ma_sound_group_set_fade_in_milliseconds","__ZThn200_N4rive14NestedArtboard11controlSizeENS_5Vec2DENS_15LayoutScaleTypeES2_NS_15LayoutDirectionE","_ma_calculate_buffer_size_in_frames_from_milliseconds","__ZN4rive24DataBindContextValueEnumC2EPNS_8DataBindE","_clear","_rive_png_write_sCAL_s","__ZN4rive4Text20buildTextStylePaintsEv","_ma_dr_mp3_bind_seek_table","_rive_png_get_y_offset_inches","__ZN4rive20DataConverterFormula16calculateFormulaEv","__ZN4rive9SliceMesh7uvStopsENS_8AxisTypeE","__ZN11rive_YGNode13computeRowGapERKN13rive_facebook4yoga6detail6ValuesILm3EEENS2_12CompactValueE","__ZN4rive12BinaryReader9readBytesEv","__ZN4rive10PointsPath17buildDependenciesEv","_lua_tovector","__ZN4rive14AnimationResetC2Ev","__ZN4rive20BlendAnimationDirect12onAddedCleanEPNS_11CoreContextE","__ZN4rive23PropertySymbolDependentD1Ev","__ZN4rive8Artboard16updateRenderPathEv","__ZNK4rive5Vec2D10normalizedEv","_ma_clip_samples_s32","_rive_png_user_version_check","_ma_audio_buffer_get_available_frames","_rive_YGNodeStyleGetFlexWrap","_ma_resampler_uninit","__ZN4rive9ViewModel15defaultInstanceEv","__ZN4rive21CubicAsymmetricVertex18outDistanceChangedEv","__ZN4rive4Text7measureENS_5Vec2DE","__ZN4rive14LinearGradient20renderOpacityChangedEv","_ma_sound_group_set_pitch","__ZThn376_N4rive21ArtboardComponentList19internalDataContextENS_3rcpINS_11DataContextEEE","__ZN4rive18NestedStateMachine7dragEndENS_5Vec2DEfi","_rive_YGNodeSetChildren","_ma_dr_wav_bytes_to_s32","_renderImageSetSize","_rive_hb_shape_plan_get_user_data","__ZN4rive14VertexListener29createInPointPropertyListenerEv","_rive_hb_font_funcs_set_paint_glyph_func","_rive_png_ascii_from_fp","__ZN4rive3gpu13FlushUniforms16InverseViewportsC1ERKNS0_15FlushDescriptorERKNS0_16PlatformFeaturesE","_rive_YGConfigGetErrata","_ma_pulsewave_set_amplitude","__ZN4rive15NestedAnimation12onAddedDirtyEPNS_11CoreContextE","__ZThn408_N4rive21ArtboardComponentList10layoutNodeEi","_rive_hb_shape","__ZNK4rive35TransitionValueNumberComparatorBase5cloneEv","_ma_node_graph_init","__ZN4rive20StateMachineImporter8addLayerENSt3__110unique_ptrINS_17StateMachineLayerENS1_14default_deleteIS3_EEEE","_rive_png_malloc_array","__Z31ma_mp3_get_cursor_in_pcm_framesP6ma_mp3Py","_WebPDecodeRGBA","_lua_rawset","__ZN4rive18AdvancingComponent4fromEPNS_4CoreE","__ZN13rive_YGConfig19setPointScaleFactorEf","_rive_png_write_tRNS","__ZN4rive11RenderImageD1Ev","_ma_sound_group_get_current_fade_volume","__ZN4rive5Mat2D8multiplyERKS0_S2_","_rive_hb_blob_get_data","__ZN4rive16ScriptedProperty12valueChangedEv","__ZN4rive21ArtboardComponentList12layoutBoundsEv","__ZN4rive12BinaryWriter5clearEv","__ZN4rive11CubicVertex7inPointERKNS_5Vec2DE","__ZN4rive36TransitionViewModelConditionImporterC2EPNS_28TransitionViewModelConditionE","__ZThn376_N4rive24ForegroundLayoutDrawable9localPathEv","__ZN4rive17FileAssetContents5bytesEv","_inflate","__ZN4rive23StateTransitionImporterC1EPNS_15StateTransitionE","__ZNK4rive4File23createViewModelInstanceEPNS_8ArtboardE","_deleteViewModelPropertyDataArray","__ZNK4rive18RadialGradientBase5cloneEv","__ZN4rive24DataBindContextValueListC1EPNS_8DataBindE","__ZN4rive16ScriptedDrawable15markNeedsUpdateEv","__ZThn168_N4rive10ShapePaint17invalidateEffectsEPNS_12StrokeEffectE","__ZN4rive13ListenerGroup17needsDownListenerEPNS_9ComponentE","_ma_hpf_reinit","__ZNK4rive21ListenerTriggerChange23validateNestedInputTypeEPKNS_11NestedInputE","__Z21ma_pcm_interleave_s32PvPPKvyj","__ZN4rive9HitTester7addRectERKNS_4AABBERKNS_5Mat2DENS_13PathDirectionE","__ZNK4rive5Mat2D6invertEPS0_","__ZNK4rive27ScriptedTransitionCondition8evaluateEPKNS_20StateMachineInstanceEPNS_25StateMachineLayerInstanceE","__ZN11rive_YGNode11removeChildEPS_","_png_get_cLLI_fixed","_deleteEvent","__ZNK4rive16ViewModelRuntime23createInstanceFromIndexEm","__ZNK4rive4File22createViewModelRuntimeEPNS_9ViewModelE","__Z17luaopen_rive_baseP9lua_State","_ma_async_notification_poll_init","_rawTextInputGetSizing","__ZN4rive15StateTransition12addConditionEPNS_19TransitionConditionE","_ma_data_source_seek_pcm_frames","_rive_YGNodeLayoutGetBottom","__ZN4rive17ScriptInputNumber20propertyValueChangedEv","__Z12ma_strappendPcmPKcS1_","__ZN4rive13DataConverterD1Ev","__ZN4rive17FileAssetContents9copyBytesERKNS_21FileAssetContentsBaseE","_ma_gainer_set_gain","_ma_pcm_u8_to_s32","_getOpenUrlEventUrl","__ZN4rive20LayoutComponentStyle21cornerRadiusBRChangedEv","__ZNK4rive24ElasticScrollPhysicsBase5cloneEv","__ZN4rive20LayoutComponentStyle14animationStyleEv","__ZNK4rive12DataEnumBase5cloneEv","_ma_lpf_node_init","__ZNK4rive12BinaryReader16didIntRangeErrorEv","__ZNK4rive27ViewModelPropertyNumberBase5cloneEv","__ZN4rive15LayoutComponent18applyInterpolationEfb","__ZN4rive14NestedArtboardD1Ev","_SBParagraphRelease","__ZN4rive9TextStyle7onDirtyENS_13ComponentDirtE","_setVMIStringRuntimeValue","__ZN4rive18ContourMeasureIter7tryNextEv","_rive_png_calculate_crc","__ZN4rive20StateMachineInstance19enablePointerEventsEi","__ZN4rive28DataBindContextValueArtboardC2EPNS_8DataBindE","__ZN4rive6Stroke15initRenderPaintEPNS_17ShapePaintMutatorE","_deleteFontFeatures","_ma_data_converter_get_input_channel_map","__ZN4rive22ScriptedPropertyNumber8setValueEf","_yogaStyleGetMinDimension","__ZN4rive20ScriptReffedArtboard8artboardEv","__ZN4rive22ViewModelInstanceValue14removeDelegateEPNS_30ViewModelInstanceValueDelegateE","_yogaStyleGetFlexBasis","__ZN4rive22ScriptedTriangleBuffer6updateEPNS_7FactoryE","__ZN13rive_facebook4yoga6detail3Log3logEP13rive_YGConfig15rive_YGLogLevelPvPKcz","__ZN4rive17TextModifierRange16typeValueChangedEv","__ZN4rive19ScriptInputArtboard6importERNS_11ImportStackE","__ZThn376_N4rive21ArtboardComponentList15updateDataBindsEv","_ma_sound_get_volume","__ZN4rive20BlendAnimationDirect12onAddedDirtyEPNS_11CoreContextE","__ZN4rive14NestedArtboard5resetEv","__ZN4rive20LayoutComponentStyle28positionTopUnitsValueChangedEv","_ma_spatializer_set_attenuation_model","__ZN4rive14GrTriangulator17intersectEdgePairEPNS0_4EdgeES2_PNS0_8EdgeListEPPNS0_6VertexERKNS0_10ComparatorE","__ZN4rive7PolygonD1Ev","_VP8GetValue","__ZN4rive14ScriptedObject10hasValidVMEv","_ma_job_queue_get_heap_size","__ZN4rive12IKConstraint17constrainRotationERNS0_13BoneChainLinkEf","__ZN4rive17TextModifierGroup13scaleYChangedEv","__ZN4rive11RenderPaintD1Ev","__ZN4rive12CoreBoolType14deserializeRevERNS_12BinaryReaderE","__ZN4rive17ScrollVirtualizerD1Ev","__ZN4rive21ArtboardComponentListD0Ev"],"weak":["__ZN7rive_OT33hb_accelerate_subtables_context_t15apply_cached_toINS_6Layout9GPOS_impl16SinglePosFormat1EEEbPKvPNS_21hb_ot_apply_context_tE","__Z16luaV_doarithimplIL3TMS15EEvP9lua_StateP10lua_TValuePKS3_S6_","__ZN31hb_ot_shape_normalize_context_t17decompose_unicodeEPKS_jPjS2_","__ZN7rive_OT33hb_accelerate_subtables_context_t8apply_toINS_6Layout9GPOS_impl16SinglePosFormat2EEEbPKvPNS_21hb_ot_apply_context_tE","__ZN7rive_OT33hb_accelerate_subtables_context_t8apply_toINS_6Layout9GPOS_impl20MarkMarkPosFormat1_2INS2_10SmallTypesEEEEEbPKvPNS_21hb_ot_apply_context_tE","__ZN7rive_OT33hb_accelerate_subtables_context_t8apply_toINS_6Layout9GPOS_impl19MarkLigPosFormat1_2INS2_10SmallTypesEEEEEbPKvPNS_21hb_ot_apply_context_tE","__ZN7rive_OT33hb_accelerate_subtables_context_t8apply_toINS_14ContextFormat3EEEbPKvPNS_21hb_ot_apply_context_tE","__ZN4rive17AudioDecodeWorker6atExitEv","__ZN7rive_OT33hb_accelerate_subtables_context_t13cache_func_toINS_21ChainContextFormat2_5INS_6Layout10SmallTypesEEEEEbPKvPNS_21hb_ot_apply_context_tEb","__ZN7rive_OT33hb_accelerate_subtables_context_t13cache_func_toINS_16ContextFormat2_5INS_6Layout10SmallTypesEEEEEbPKvPNS_21hb_ot_apply_context_tEb","__ZN7rive_OT33hb_accelerate_subtables_context_t8apply_toINS_16ContextFormat1_4INS_6Layout10SmallTypesEEEEEbPKvPNS_21hb_ot_apply_context_tE","__ZN7rive_OT33hb_accelerate_subtables_context_t15apply_cached_toINS_14ContextFormat3EEEbPKvPNS_21hb_ot_apply_context_tE","__ZN7rive_OT33hb_accelerate_subtables_context_t8apply_toINS_6Layout9GSUB_impl22MultipleSubstFormat1_2INS2_10SmallTypesEEEEEbPKvPNS_21hb_ot_apply_context_tE","__ZN7rive_OT33hb_accelerate_subtables_context_t15apply_cached_toINS_19ChainContextFormat3EEEbPKvPNS_21hb_ot_apply_context_tE","__ZN7rive_OT33hb_accelerate_subtables_context_t8apply_toINS_6Layout9GSUB_impl20SingleSubstFormat2_4INS2_10SmallTypesEEEEEbPKvPNS_21hb_ot_apply_context_tE","__ZN7rive_OT6Layout9GPOS_impl9PosLookup21dispatch_recurse_funcINS_21hb_ot_apply_context_tEEENT_8return_tEPS5_j","__ZN7rive_OT33hb_accelerate_subtables_context_t13cache_func_toINS_6Layout9GPOS_impl16SinglePosFormat2EEEbPKvPNS_21hb_ot_apply_context_tEb","__ZN4rive10LevelsNode13measureLevelsEPvPPKfPjPPfS5_","__ZN7rive_OT33hb_accelerate_subtables_context_t13cache_func_toINS_6Layout9GSUB_impl20SingleSubstFormat1_3INS2_10SmallTypesEEEEEbPKvPNS_21hb_ot_apply_context_tEb","__ZN7rive_OT33hb_accelerate_subtables_context_t13cache_func_toINS_6Layout9GPOS_impl16SinglePosFormat1EEEbPKvPNS_21hb_ot_apply_context_tEb","__ZN31hb_ot_shape_normalize_context_t15compose_unicodeEPKS_jjPj","__ZN7rive_OT33hb_accelerate_subtables_context_t13cache_func_toINS_6Layout9GSUB_impl22LigatureSubstFormat1_2INS2_10SmallTypesEEEEEbPKvPNS_21hb_ot_apply_context_tEb","__ZN7rive_OT33hb_accelerate_subtables_context_t15apply_cached_toINS_6Layout9GSUB_impl22MultipleSubstFormat1_2INS2_10SmallTypesEEEEEbPKvPNS_21hb_ot_apply_context_tE","__ZN7rive_OT33hb_accelerate_subtables_context_t15apply_cached_toINS_16ContextFormat2_5INS_6Layout10SmallTypesEEEEEbPKvPNS_21hb_ot_apply_context_tE","__ZN7rive_OT33hb_accelerate_subtables_context_t15apply_cached_toINS_6Layout9GSUB_impl20SingleSubstFormat2_4INS2_10SmallTypesEEEEEbPKvPNS_21hb_ot_apply_context_tE","__ZN7rive_OT33hb_accelerate_subtables_context_t15apply_cached_toINS_6Layout9GPOS_impl19MarkLigPosFormat1_2INS2_10SmallTypesEEEEEbPKvPNS_21hb_ot_apply_context_tE","__Z16luaV_doarithimplIL3TMS12EEvP9lua_StateP10lua_TValuePKS3_S6_","__Z16luaV_doarithimplIL3TMS9EEvP9lua_StateP10lua_TValuePKS3_S6_","__ZN7rive_OT33hb_accelerate_subtables_context_t8apply_toINS_19ChainContextFormat3EEEbPKvPNS_21hb_ot_apply_context_tE","__ZN7rive_OT33hb_accelerate_subtables_context_t13cache_func_toINS_21ChainContextFormat1_4INS_6Layout10SmallTypesEEEEEbPKvPNS_21hb_ot_apply_context_tEb","__ZN7rive_OT33hb_accelerate_subtables_context_t8apply_toINS_21ChainContextFormat2_5INS_6Layout10SmallTypesEEEEEbPKvPNS_21hb_ot_apply_context_tE","__ZN7rive_OT33hb_accelerate_subtables_context_t13cache_func_toINS_6Layout9GPOS_impl16PairPosFormat1_3INS2_10SmallTypesEEEEEbPKvPNS_21hb_ot_apply_context_tEb","__ZN7rive_OT33hb_accelerate_subtables_context_t15apply_cached_toINS_6Layout9GPOS_impl16PairPosFormat1_3INS2_10SmallTypesEEEEEbPKvPNS_21hb_ot_apply_context_tE","__ZN7rive_OT33hb_accelerate_subtables_context_t15apply_cached_toINS_6Layout9GPOS_impl20MarkBasePosFormat1_2INS2_10SmallTypesEEEEEbPKvPNS_21hb_ot_apply_context_tE","__Z16luaV_doarithimplIL3TMS11EEvP9lua_StateP10lua_TValuePKS3_S6_","__ZNK3AAT11FeatureName16get_feature_typeEv","__ZN7rive_OT33hb_accelerate_subtables_context_t13cache_func_toINS_6Layout9GSUB_impl20SingleSubstFormat2_4INS2_10SmallTypesEEEEEbPKvPNS_21hb_ot_apply_context_tEb","__ZN7rive_OT33hb_accelerate_subtables_context_t8apply_toINS_6Layout9GPOS_impl16PairPosFormat1_3INS2_10SmallTypesEEEEEbPKvPNS_21hb_ot_apply_context_tE","__ZN7rive_OT33hb_accelerate_subtables_context_t8apply_toINS_6Layout9GSUB_impl20SingleSubstFormat1_3INS2_10SmallTypesEEEEEbPKvPNS_21hb_ot_apply_context_tE","__ZN7rive_OT33hb_accelerate_subtables_context_t13cache_func_toINS_6Layout9GPOS_impl17CursivePosFormat1EEEbPKvPNS_21hb_ot_apply_context_tEb","__ZN10RiveWorker6atExitEv","__ZN7rive_OT33hb_accelerate_subtables_context_t8apply_toINS_6Layout9GPOS_impl20MarkBasePosFormat1_2INS2_10SmallTypesEEEEEbPKvPNS_21hb_ot_apply_context_tE","__ZN7rive_OT33hb_accelerate_subtables_context_t8apply_toINS_21ChainContextFormat1_4INS_6Layout10SmallTypesEEEEEbPKvPNS_21hb_ot_apply_context_tE","__ZN7rive_OT33hb_accelerate_subtables_context_t8apply_toINS_6Layout9GPOS_impl16PairPosFormat2_4INS2_10SmallTypesEEEEEbPKvPNS_21hb_ot_apply_context_tE","__ZN7rive_OT33hb_accelerate_subtables_context_t15apply_cached_toINS_16ContextFormat1_4INS_6Layout10SmallTypesEEEEEbPKvPNS_21hb_ot_apply_context_tE","__Z16luaV_doarithimplIL3TMS13EEvP9lua_StateP10lua_TValuePKS3_S6_","__ZN7rive_OT33hb_accelerate_subtables_context_t8apply_toINS_6Layout9GPOS_impl16SinglePosFormat1EEEbPKvPNS_21hb_ot_apply_context_tE","__ZN10RiveWorker16staticWorkThreadEPv","__ZN7rive_OT33hb_accelerate_subtables_context_t15apply_cached_toINS_6Layout9GSUB_impl20SingleSubstFormat1_3INS2_10SmallTypesEEEEEbPKvPNS_21hb_ot_apply_context_tE","__ZN7rive_OT33hb_accelerate_subtables_context_t13cache_func_toINS_6Layout9GPOS_impl16PairPosFormat2_4INS2_10SmallTypesEEEEEbPKvPNS_21hb_ot_apply_context_tEb","__ZN7rive_OT6Layout9GSUB_impl11SubstLookup21dispatch_recurse_funcINS_21hb_ot_apply_context_tEEENT_8return_tEPS5_j","__Z16luaV_doarithimplIL3TMS14EEvP9lua_StateP10lua_TValuePKS3_S6_","__ZN7rive_OT33hb_accelerate_subtables_context_t13cache_func_toINS_14ContextFormat3EEEbPKvPNS_21hb_ot_apply_context_tEb","__ZN7rive_OT33hb_accelerate_subtables_context_t15apply_cached_toINS_6Layout9GSUB_impl22LigatureSubstFormat1_2INS2_10SmallTypesEEEEEbPKvPNS_21hb_ot_apply_context_tE","__ZN7rive_OT33hb_accelerate_subtables_context_t15apply_cached_toINS_6Layout9GPOS_impl16PairPosFormat2_4INS2_10SmallTypesEEEEEbPKvPNS_21hb_ot_apply_context_tE","__ZN16rive_hb_buffer_t19_cluster_group_funcERK20rive_hb_glyph_info_tS2_","__ZN7rive_OT33hb_accelerate_subtables_context_t13cache_func_toINS_6Layout9GPOS_impl20MarkMarkPosFormat1_2INS2_10SmallTypesEEEEEbPKvPNS_21hb_ot_apply_context_tEb","__ZN7rive_OT33hb_accelerate_subtables_context_t8apply_toINS_6Layout9GSUB_impl23AlternateSubstFormat1_2INS2_10SmallTypesEEEEEbPKvPNS_21hb_ot_apply_context_tE","__ZN7rive_OT33hb_accelerate_subtables_context_t15apply_cached_toINS_6Layout9GSUB_impl30ReverseChainSingleSubstFormat1EEEbPKvPNS_21hb_ot_apply_context_tE","__ZN7rive_OT33hb_accelerate_subtables_context_t15apply_cached_toINS_6Layout9GSUB_impl23AlternateSubstFormat1_2INS2_10SmallTypesEEEEEbPKvPNS_21hb_ot_apply_context_tE","__ZN7rive_OT6Layout9GSUB_impl11SubstLookup29dispatch_closure_recurse_funcEPNS_20hb_closure_context_tEjP13rive_hb_set_tjj","__ZN7rive_OT33hb_accelerate_subtables_context_t13cache_func_toINS_6Layout9GPOS_impl20MarkBasePosFormat1_2INS2_10SmallTypesEEEEEbPKvPNS_21hb_ot_apply_context_tEb","__ZN7rive_OT33hb_accelerate_subtables_context_t13cache_func_toINS_6Layout9GPOS_impl19MarkLigPosFormat1_2INS2_10SmallTypesEEEEEbPKvPNS_21hb_ot_apply_context_tEb","__Z16luaV_doarithimplIL3TMS10EEvP9lua_StateP10lua_TValuePKS3_S6_","__ZN7rive_OT33hb_accelerate_subtables_context_t13cache_func_toINS_6Layout9GSUB_impl22MultipleSubstFormat1_2INS2_10SmallTypesEEEEEbPKvPNS_21hb_ot_apply_context_tEb","__ZN7rive_OT33hb_accelerate_subtables_context_t13cache_func_toINS_19ChainContextFormat3EEEbPKvPNS_21hb_ot_apply_context_tEb","__ZN7rive_OT33hb_accelerate_subtables_context_t8apply_toINS_16ContextFormat2_5INS_6Layout10SmallTypesEEEEEbPKvPNS_21hb_ot_apply_context_tE","__ZN7rive_OT33hb_accelerate_subtables_context_t13cache_func_toINS_6Layout9GSUB_impl23AlternateSubstFormat1_2INS2_10SmallTypesEEEEEbPKvPNS_21hb_ot_apply_context_tEb","__Z16luaV_doarithimplIL3TMS8EEvP9lua_StateP10lua_TValuePKS3_S6_","__ZN7rive_OT33hb_accelerate_subtables_context_t15apply_cached_toINS_21ChainContextFormat1_4INS_6Layout10SmallTypesEEEEEbPKvPNS_21hb_ot_apply_context_tE","__ZN7rive_OT33hb_accelerate_subtables_context_t8apply_toINS_6Layout9GSUB_impl30ReverseChainSingleSubstFormat1EEEbPKvPNS_21hb_ot_apply_context_tE","__ZN7rive_OT33hb_accelerate_subtables_context_t15apply_cached_toINS_6Layout9GPOS_impl16SinglePosFormat2EEEbPKvPNS_21hb_ot_apply_context_tE","__ZN7rive_OT33hb_accelerate_subtables_context_t15apply_cached_toINS_6Layout9GPOS_impl20MarkMarkPosFormat1_2INS2_10SmallTypesEEEEEbPKvPNS_21hb_ot_apply_context_tE","__ZN7rive_OT33hb_accelerate_subtables_context_t15apply_cached_toINS_6Layout9GPOS_impl17CursivePosFormat1EEEbPKvPNS_21hb_ot_apply_context_tE","__ZN7rive_OT33hb_accelerate_subtables_context_t8apply_toINS_6Layout9GPOS_impl17CursivePosFormat1EEEbPKvPNS_21hb_ot_apply_context_tE","__ZN7rive_OT33hb_accelerate_subtables_context_t15apply_cached_toINS_21ChainContextFormat2_5INS_6Layout10SmallTypesEEEEEbPKvPNS_21hb_ot_apply_context_tE","__ZN7rive_OT33hb_accelerate_subtables_context_t13cache_func_toINS_6Layout9GSUB_impl30ReverseChainSingleSubstFormat1EEEbPKvPNS_21hb_ot_apply_context_tEb","__ZN4rive17AudioDecodeWorker16staticWorkThreadEPv","__ZN7rive_OT33hb_accelerate_subtables_context_t13cache_func_toINS_16ContextFormat1_4INS_6Layout10SmallTypesEEEEEbPKvPNS_21hb_ot_apply_context_tEb","__ZN7rive_OT33hb_accelerate_subtables_context_t8apply_toINS_6Layout9GSUB_impl22LigatureSubstFormat1_2INS2_10SmallTypesEEEEEbPKvPNS_21hb_ot_apply_context_tE"]}}],"flags":[{"attributes":["not_app_extension_safe"]}],"install_names":[{"name":"@rpath/rive_native.framework/Versions/A/rive_native"}],"swift_abi":[{"abi":7}],"target_info":[{"min_deployment":"11","target":"arm64-macos"}]},"tapi_tbd_version":5}
